(dp0
S'secondly'
p1
I1
sS'foul'
p2
I2
sS'four'
p3
I7
sS'Does'
p4
I3
sS'hanging'
p5
I4
sS'comically'
p6
I1
sS'unanswered'
p7
I6
sS'originality'
p8
I1
sS'Sewell'
p9
I1
sS'caned'
p10
I1
sS'lord'
p11
I1
sS'sinking'
p12
I4
sS'Frankly'
p13
I1
sS'deli'
p14
I1
sS'Blade'
p15
I1
sS'hearthrobs'
p16
I1
sS'stabbed'
p17
I3
sS'bringing'
p18
I1
sS'prize'
p19
I2
sS'Less'
p20
I1
sS'wooden'
p21
I2
sS'Bacon'
p22
I1
sS'protest'
p23
I1
sS'Throw'
p24
I1
sS'woods'
p25
I12
sS'Overdramatic'
p26
I1
sS'stereotypical'
p27
I1
sS'Paul'
p28
I1
sS'commented'
p29
I2
sS'HAPPENED'
p30
I1
sS'Rachel'
p31
I2
sS'tired'
p32
I8
sS'Matthew'
p33
I1
sS'second'
p34
I16
sS'sustaining'
p35
I1
sS'errors'
p36
I1
sS'thunder'
p37
I1
sS'cooking'
p38
I1
sS'fingers'
p39
I3
sS'infintely'
p40
I1
sS'existentialism'
p41
I1
sS'remem'
p42
I1
sS'hero'
p43
I6
sS'anti-southern'
p44
I1
sS'cula'
p45
I1
sS'here'
p46
I30
sS'cart'
p47
I1
sS'old-farty'
p48
I1
sS'hers'
p49
I1
sS'pablum'
p50
I1
sS'dork'
p51
I1
sS'substance'
p52
I3
sS'uplifting'
p53
I1
sS'k'
p54
I2
sS'reports'
p55
I1
sS'controversy'
p56
I1
sS'Swayze'
p57
I1
sS'NOT'
p58
I19
sS'military'
p59
I2
sS'criticism'
p60
I1
sS'golden'
p61
I1
sS'Compared'
p62
I1
sS'divide'
p63
I1
sS'ground'
p64
I3
sS'explained'
p65
I2
sS'replace'
p66
I1
sS'brought'
p67
I6
sS'wizardry'
p68
I1
sS'"The'
p69
I2
sS'scarier'
p70
I4
sS'spoke'
p71
I1
sS'sidebars'
p72
I1
sS'music'
p73
I28
sS'therefore'
p74
I3
sS'inner'
p75
I1
sS'until'
p76
I17
sS'holy'
p77
I1
sS'successful'
p78
I2
sS'brings'
p79
I2
sS'hurt'
p80
I4
sS'99'
p81
I1
sS'glass'
p82
I1
sS'hurl'
p83
I1
sS'90'
p84
I7
sS'hole'
p85
I1
sS'hold'
p86
I7
sS'95'
p87
I1
sS'circumstances'
p88
I1
sS'morally'
p89
I2
sS'locked'
p90
I2
sS'unessential'
p91
I1
sS'jumbling'
p92
I1
sS'doofuses'
p93
I1
sS'mid-life'
p94
I2
sS'straddle'
p95
I1
sS'attitdues'
p96
I1
sS'concepts'
p97
I1
sS'example'
p98
I10
sS'triple'
p99
I1
sS'pooped'
p100
I1
sS'artillery'
p101
I1
sS'Reality'
p102
I1
sS'reviewing'
p103
I1
sS'want'
p104
I47
sS'absolute'
p105
I12
sS'Meets'
p106
I1
sS'LA'
p107
I1
sS'LL'
p108
I1
sS'copious'
p109
I1
sS'big-buck'
p110
I1
sS'machine'
p111
I1
sS'how'
p112
I75
sS'hot'
p113
I7
sS'significance'
p114
I1
sS'classify'
p115
I1
sS'A'
p116
I109
sS'jezzzuz'
p117
I1
sS'Bates'
p118
I2
sS'beauty'
p119
I2
sS'typed'
p120
I1
sS'wrong'
p121
I17
sS'MIGHTY'
p122
I1
sS'Reese'
p123
I1
sS'destined'
p124
I1
sS'turf'
p125
I1
sS'excited'
p126
I3
sS'types'
p127
I2
sS'effective'
p128
I2
sS'scourge'
p129
I1
sS'wins'
p130
I2
sS'would-be'
p131
I2
sS'SHOWGIRLS'
p132
I2
sS'Yoda'
p133
I1
sS'sickening'
p134
I1
sS'Another'
p135
I9
sS'keeps'
p136
I1
sS'democratic'
p137
I1
sS'wing'
p138
I2
sS'stupit'
p139
I1
sS'bug-eyed'
p140
I1
sS'dreamed'
p141
I1
sS'Masacure'
p142
I1
sS'TRUE'
p143
I1
sS'Shinning'
p144
I1
sS'Gwenyth'
p145
I1
sS'Bret'
p146
I2
sS'wickedly'
p147
I1
sS'fit'
p148
I6
sS'screaming'
p149
I5
sS'fix'
p150
I1
sS'diffrent'
p151
I1
sS'hidden'
p152
I1
sS'easier'
p153
I1
sS'fim'
p154
I1
sS'Christiansen'
p155
I1
sS'slate'
p156
I1
sS'slicing'
p157
I3
sS'detachment'
p158
I1
sS'effects'
p159
I45
sS'Alot'
p160
I1
sS'over-rated'
p161
I4
sS'undeveloped'
p162
I1
sS'silver'
p163
I2
sS'saddened'
p164
I1
sS'represents'
p165
I3
sS'tripples'
p166
I1
sS'foregin'
p167
I1
sS'spotless'
p168
I1
sS'pleez'
p169
I1
sS'directly'
p170
I2
sS'sixth-rate'
p171
I1
sS'series'
p172
I30
sS'spider'
p173
I1
sS'Hollywood'
p174
I27
sS'misfortune'
p175
I3
sS'Susie'
p176
I1
sS'Part'
p177
I1
sS'ha'
p178
I7
sS'excepting'
p179
I1
sS're'
p180
I29
sS'Super'
p181
I5
sS'Vanity'
p182
I1
sS'stamping'
p183
I2
sS'Word'
p184
I1
sS'written'
p185
I19
sS'University'
p186
I1
sS'waddle'
p187
I1
sS'Abortion'
p188
I1
sS'faculties'
p189
I1
sS'Trinity'
p190
I4
sS'sheet'
p191
I1
sS'knit'
p192
I1
sS'15th-century'
p193
I1
sS'thwe'
p194
I1
sS'Unbreakable'
p195
I1
sS'diabetic'
p196
I1
sS'deja'
p197
I1
sS'disturbed'
p198
I1
sS'Human'
p199
I1
sS'selfs'
p200
I1
sS'waists'
p201
I1
sS'Please'
p202
I7
sS'SILLY'
p203
I1
sS'wasn'
p204
I50
sS'RUINED'
p205
I1
sS'Duchovny'
p206
I1
sS'yawn-inducing'
p207
I1
sS'Sonic'
p208
I1
sS'unsuccfull'
p209
I1
sS'needed'
p210
I6
sS'listed'
p211
I2
sS'critter'
p212
I1
sS'bitter'
p213
I1
sS'listen'
p214
I3
sS'Hammerstein'
p215
I1
sS'canned'
p216
I1
sS'predictable'
p217
I23
sS'HOOPER'
p218
I1
sS'PIECE'
p219
I2
sS'crawl'
p220
I1
sS'Suck'
p221
I1
sS'Beautiful'
p222
I1
sS'Plummer'
p223
I1
sS'showed'
p224
I6
sS'whinging'
p225
I1
sS'shower'
p226
I2
sS'AWFUL'
p227
I4
sS'Zeta'
p228
I1
sS'feeling'
p229
I11
sS'acclaim'
p230
I3
sS'esta'
p231
I1
sS'Generally'
p232
I1
sS'spectrum'
p233
I1
sS'Angela'
p234
I1
sS'corny'
p235
I4
sS'Williams'
p236
I3
sS'dozen'
p237
I1
sS'Then'
p238
I11
sS'kidnap'
p239
I1
sS'mostly'
p240
I3
sS'calber'
p241
I1
sS'Band'
p242
I1
sS'recommended'
p243
I2
sS'causing'
p244
I1
sS'Bana'
p245
I1
sS'They'
p246
I42
sS'Unicorn'
p247
I1
sS'Jones'
p248
I2
sS'pander'
p249
I1
sS'committing'
p250
I1
sS'Wish'
p251
I2
sS'object'
p252
I1
sS'cinematic'
p253
I4
sS'theatres'
p254
I1
sS'mouth'
p255
I4
sS'letter'
p256
I1
sS'thriller'
p257
I1
sS'Typical'
p258
I2
sS'singer'
p259
I1
sS'episode'
p260
I3
sS'thrusted'
p261
I1
sS'UNBELIEVABLE'
p262
I1
sS'camp'
p263
I4
sS'scream'
p264
I7
sS'came'
p265
I23
sS'marvel'
p266
I3
sS'saying'
p267
I15
sS'bomb'
p268
I4
sS'droppings'
p269
I1
sS'nominated'
p270
I1
sS'sexism'
p271
I1
sS'tempted'
p272
I1
sS'Basinger'
p273
I1
sS'lessons'
p274
I2
sS'busy'
p275
I1
sS'typewriters'
p276
I1
sS'bust'
p277
I1
sS'appreciated'
p278
I1
sS'regurgitated'
p279
I1
sS'theme'
p280
I6
sS'touched'
p281
I1
sS'rich'
p282
I2
sS'heartily'
p283
I1
sS'Clothes'
p284
I2
sS'Tricky'
p285
I1
sS'\xc3'
p286
I4
sS'McGowan'
p287
I1
sS'psychiatric'
p288
I1
sS'spirit'
p289
I1
sS'altogether'
p290
I1
sS'X'
p291
I4
sS'lmao'
p292
I1
sS'Rip'
p293
I1
sS'Dances'
p294
I1
sS'Mockingbird'
p295
I1
sS'Clearly'
p296
I1
sS'blew'
p297
I2
sS'disaster'
p298
I5
sS'fair'
p299
I6
sS'Dogg'
p300
I3
sS'result'
p301
I7
sS'Saruman'
p302
I2
sS'fail'
p303
I1
sS'John'
p304
I15
sS'skulls'
p305
I1
sS'Dogs'
p306
I1
sS'best'
p307
I34
sS'lots'
p308
I5
sS'Anti-Castro'
p309
I1
sS'freeze'
p310
I1
sS'grusome'
p311
I1
sS'score'
p312
I8
sS'humankind'
p313
I1
sS'conceptual'
p314
I1
sS'Cage'
p315
I1
sS'reccomend'
p316
I1
sS'claws'
p317
I1
sS'Moriah'
p318
I1
sS'men'
p319
I8
sS'nature'
p320
I1
sS'99cents'
p321
I1
sS'Chris'
p322
I1
sS'WAAAAAA'
p323
I1
sS'extent'
p324
I3
sS'wth'
p325
I1
sS'JLo'
p326
I1
sS'suspensful'
p327
I1
sS'pity'
p328
I3
sS'country'
p329
I4
sS'pits'
p330
I1
sS'adventures'
p331
I1
sS'demanded'
p332
I1
sS'fruity'
p333
I1
sS'Laura'
p334
I1
sS'Desdemona'
p335
I1
sS'adapted'
p336
I1
sS'asked'
p337
I6
sS'pre'
p338
I1
sS'irresponsible'
p339
I1
sS'2nd'
p340
I1
sS'cult'
p341
I4
sS'Unquestionably'
p342
I1
sS'Closed'
p343
I2
sS'retelling'
p344
I1
sS'Sorry'
p345
I8
sS'Sitting'
p346
I1
sS'.'
p347
I4490
sS'muck'
p348
I1
sS'much'
p349
I85
sS'wuld'
p350
I1
sS'Reggie'
p351
I1
sS'life'
p352
I49
sS'recomend'
p353
I4
sS'Tokyo'
p354
I1
sS'writting'
p355
I1
sS'pandering'
p356
I1
sS'kssing'
p357
I1
sS'child'
p358
I12
sS'worked'
p359
I4
sS'modern-day'
p360
I1
sS'Holmes'
p361
I3
sS'unecessary'
p362
I2
sS'gritty'
p363
I2
sS'Stepford'
p364
I2
sS'Harrison'
p365
I2
sS'ridiculously'
p366
I2
sS'played'
p367
I10
sS'distorted'
p368
I1
sS'LOL'
p369
I2
sS'conditioned'
p370
I1
sS'player'
p371
I5
sS'elicit'
p372
I1
sS'Scariest'
p373
I1
sS'LOT'
p374
I2
sS'charactors'
p375
I1
sS'funnyparts'
p376
I1
sS'thingy'
p377
I1
sS'credit'
p378
I5
sS'things'
p379
I27
sS'puerter'
p380
I1
sS'Oh'
p381
I22
sS'doofus'
p382
I1
sS'buttholes'
p383
I1
sS'split'
p384
I2
sS'Die'
p385
I1
sS'Amelia'
p386
I1
sS'fairly'
p387
I1
sS'boiled'
p388
I1
sS'Maybe'
p389
I17
sS'qualifications'
p390
I2
sS'dimness'
p391
I1
sS'preachy'
p392
I3
sS'tuna'
p393
I1
sS'tune'
p394
I1
sS'stupendous'
p395
I1
sS'redeem'
p396
I1
sS'detracted'
p397
I1
sS'opinions'
p398
I2
sS'Russell'
p399
I4
sS'givin'
p400
I1
sS'THAT'
p401
I2
sS'reminents'
p402
I1
sS'Destination'
p403
I1
sS'sleepy'
p404
I2
sS'forsaken'
p405
I1
sS'disguise'
p406
I1
sS'portrayed'
p407
I6
sS'succeeding'
p408
I1
sS'Happy'
p409
I1
sS'keeled'
p410
I1
sS'Ewing'
p411
I1
sS'Oscar'
p412
I6
sS'ease'
p413
I1
sS'had'
p414
I139
sS'Binks'
p415
I1
sS'easy'
p416
I6
sS'east'
p417
I1
sS'survival'
p418
I1
sS'possible'
p419
I4
sS'possibly'
p420
I14
sS'imposed'
p421
I1
sS'shadow'
p422
I1
sS'unique'
p423
I3
sS'desire'
p424
I2
sS'psychological'
p425
I1
sS'OH'
p426
I3
sS'steps'
p427
I1
sS'Steven'
p428
I3
sS'Abyss'
p429
I2
sS'right'
p430
I31
sS'old'
p431
I41
sS'ole'
p432
I2
sS'crowd'
p433
I2
sS'people'
p434
I101
sS'walk-on'
p435
I1
sS'Arquette'
p436
I1
sS'desensitize'
p437
I1
sS'glove'
p438
I2
sS'cultish'
p439
I1
sS'oppressive'
p440
I1
sS'for'
p441
I368
sS'bottom'
p442
I3
sS'gooch'
p443
I1
sS'creative'
p444
I4
sS'witty'
p445
I2
sS'exposition'
p446
I1
sS'umm'
p447
I1
sS'Gandalf'
p448
I1
sS'completly'
p449
I4
sS'Watts'
p450
I2
sS'fish'
p451
I1
sS'dental'
p452
I1
sS'Nicholson'
p453
I4
sS'lefty'
p454
I1
sS'Thing'
p455
I2
sS'losing'
p456
I1
sS'memorable'
p457
I2
sS'Think'
p458
I3
sS'valium'
p459
I1
sS'First'
p460
I10
sS'derailed'
p461
I1
sS'Essencially'
p462
I1
sS'dollars'
p463
I1
sS'o'
p464
I5
sS'Valentine'
p465
I2
sS'lacked'
p466
I3
sS'Confusing'
p467
I1
sS'slightly'
p468
I5
sS'match'
p469
I1
sS'raised'
p470
I1
sS'soo'
p471
I4
sS'son'
p472
I8
sS'magazines'
p473
I1
sS'GOT'
p474
I2
sS'wrap'
p475
I1
sS'Beatle-wannabes'
p476
I1
sS'support'
p477
I5
sS'constantly'
p478
I2
sS'tame'
p479
I1
sS'absolutely'
p480
I23
sS'Haunted'
p481
I2
sS'Awful'
p482
I11
sS'call'
p483
I6
sS'crapdotcom'
p484
I1
sS'happy'
p485
I8
sS'insurrection'
p486
I1
sS'WILDLIFE'
p487
I1
sS'silliness'
p488
I1
sS'actuallly'
p489
I1
sS'extremity'
p490
I1
sS'inside'
p491
I5
sS'WHY'
p492
I3
sS'azz'
p493
I1
sS'torturing'
p494
I1
sS'Tony'
p495
I1
sS'reinstitutes'
p496
I1
sS'examples'
p497
I1
sS'Sir'
p498
I1
sS'juvenile'
p499
I2
sS'later'
p500
I9
sS'proved'
p501
I1
sS'158'
p502
I1
sS'Josh'
p503
I2
sS'textbook'
p504
I1
sS'hungry'
p505
I1
sS'Virgin'
p506
I1
sS'proves'
p507
I3
sS'exist'
p508
I2
sS'DEA'
p509
I1
sS'dealer'
p510
I2
sS'Wretched'
p511
I2
sS'floor'
p512
I4
sS'Track'
p513
I1
sS'"surprise"'
p514
I1
sS'actor'
p515
I28
sS'uttered'
p516
I1
sS'flood'
p517
I2
sS'role'
p518
I15
sS'ambitious'
p519
I1
sS'roll'
p520
I3
sS'E'
p521
I1
sS'Verry'
p522
I1
sS'invested'
p523
I1
sS'smelling'
p524
I1
sS'Bettany'
p525
I1
sS'annointed'
p526
I1
sS'LMAO'
p527
I1
sS'Morrow'
p528
I1
sS'unentertaining'
p529
I2
sS'anti-Semite'
p530
I1
sS'time'
p531
I146
sS'push'
p532
I1
sS'ndice'
p533
I1
sS'urinary'
p534
I1
sS'chain'
p535
I2
sS'whoever'
p536
I2
sS'reviewers'
p537
I2
sS'scourging'
p538
I1
sS'theaters'
p539
I4
sS'cruxifiction'
p540
I1
sS'Indiana'
p541
I1
sS'chair'
p542
I4
sS'Wee'
p543
I1
sS'rousing'
p544
I1
sS'vey'
p545
I1
sS'Iago'
p546
I1
sS'balled'
p547
I1
sS'Hollyood'
p548
I1
sS'Believe'
p549
I1
sS'oversight'
p550
I1
sS'jerk'
p551
I1
sS'recipe'
p552
I1
sS'choice'
p553
I2
sS'stays'
p554
I2
sS'Hannibal'
p555
I1
sS'exact'
p556
I1
sS'minute'
p557
I4
sS'discovered'
p558
I2
sS'tear'
p559
I1
sS'leave'
p560
I13
sS'settle'
p561
I1
sS'live-action'
p562
I1
sS'team'
p563
I2
sS'Kevin'
p564
I5
sS'prevent'
p565
I1
sS'insignificant'
p566
I1
sS'counsler'
p567
I1
sS'sign'
p568
I4
sS'shirts'
p569
I1
sS'camerawork'
p570
I2
sS'Hollow'
p571
I1
sS'current'
p572
I3
sS'Cruz'
p573
I2
sS'fifth'
p574
I1
sS'falling'
p575
I7
sS'Francis'
p576
I2
sS'True'
p577
I2
sS'Lopez'
p578
I3
sS'Me'
p579
I2
sS'jury'
p580
I1
sS'honour'
p581
I1
sS'Dated'
p582
I1
sS'Ms'
p583
I1
sS'Mr'
p584
I11
sS'alone'
p585
I7
sS'along'
p586
I11
sS'My'
p587
I25
sS'ME'
p588
I3
sS'passengers'
p589
I1
sS'redemption'
p590
I1
sS'brilliant'
p591
I6
sS'title'
p592
I14
sS'funded'
p593
I1
sS'CREATED'
p594
I1
sS'myers'
p595
I2
sS'MY'
p596
I5
sS'nowhere'
p597
I6
sS'REAL'
p598
I4
sS'love'
p599
I41
sS'Sci-Fi'
p600
I4
sS'Thornton'
p601
I1
sS'prefer'
p602
I2
sS'logical'
p603
I3
sS'bloody'
p604
I1
sS'Enough'
p605
I4
sS'bad-no'
p606
I1
sS'Tarntino-like'
p607
I1
sS'fake'
p608
I10
sS'working'
p609
I1
sS'positive'
p610
I5
sS'angry'
p611
I6
sS'Zeta-Jones'
p612
I1
sS'films'
p613
I37
sS'Those'
p614
I2
sS'loving'
p615
I1
sS'reprise'
p616
I1
sS'visual'
p617
I3
sS'Jimmy'
p618
I1
sS'everywhere'
p619
I1
sS'ceratosaur'
p620
I1
sS'deserved'
p621
I7
sS'pretend'
p622
I2
sS'abortion'
p623
I2
sS'inflamed'
p624
I1
sS'believes'
p625
I3
sS'interracial'
p626
I1
sS'following'
p627
I4
sS'Our'
p628
I1
sS'Out'
p629
I1
sS'mentality'
p630
I1
sS'awesome'
p631
I6
sS'BAD'
p632
I14
sS'hides'
p633
I1
sS'allowed'
p634
I1
sS'offense'
p635
I2
sS'Heche'
p636
I1
sS'listens'
p637
I1
sS'unhatched'
p638
I1
sS'monitoring'
p639
I1
sS'Who'
p640
I9
sS'grossed'
p641
I1
sS'Dumb'
p642
I2
sS'Why'
p643
I34
sS'ultra-boring'
p644
I1
sS'landmark'
p645
I1
sS'TOBE'
p646
I1
sS'stupid-like'
p647
I1
sS'date'
p648
I4
sS'such'
p649
I51
sS'suck'
p650
I27
sS'data'
p651
I1
sS'shockingly'
p652
I1
sS'stress'
p653
I1
sS'surfing'
p654
I1
sS'approximation'
p655
I1
sS'sh'
p656
I9
sS'so'
p657
I243
sS'wolves'
p658
I1
sS'pulled'
p659
I2
sS'travel'
p660
I3
sS'se'
p661
I1
sS'drunken'
p662
I1
sS'LIE'
p663
I1
sS'Affleck'
p664
I5
sS'years'
p665
I28
sS'hiring'
p666
I1
sS'episodes'
p667
I1
sS'Dragonheart'
p668
I1
sS'razors'
p669
I1
sS'tore'
p670
I1
sS'limbs'
p671
I1
sS'lackluster'
p672
I1
sS'torn'
p673
I1
sS'amazing'
p674
I6
sS'Whitney'
p675
I1
sS'suspension'
p676
I1
sS'937'
p677
I1
sS'no-brainer'
p678
I1
sS'instantly'
p679
I1
sS'Craven-like'
p680
I1
sS'smarter'
p681
I1
sS'insomnia'
p682
I1
sS'feelin'
p683
I1
sS'records'
p684
I1
sS'drilling'
p685
I1
sS'workmanlike'
p686
I1
sS'Schwimmer'
p687
I1
sS'Pardon'
p688
I1
sS'didn'
p689
I94
sS'Stanley'
p690
I3
sS'Lucas'
p691
I10
sS'naked'
p692
I5
sS'seriously'
p693
I8
sS'Joe'
p694
I1
sS'internet'
p695
I1
sS'formula'
p696
I4
sS'sings'
p697
I1
sS'Grams'
p698
I1
sS'unoriginality'
p699
I1
sS'million'
p700
I2
sS'quite'
p701
I10
sS'crazies'
p702
I1
sS'crazier'
p703
I1
sS'besides'
p704
I4
sS'training'
p705
I1
sS'Pac-Man'
p706
I1
sS'disguised'
p707
I1
sS'"Conan'
p708
I1
sS'aboard'
p709
I1
sS'bothersome'
p710
I1
sS'Owens'
p711
I1
sS'centerists'
p712
I1
sS'emotion'
p713
I5
sS'saving'
p714
I3
sS'spoken'
p715
I2
sS'one'
p716
I306
sS'vote'
p717
I5
sS'open'
p718
I3
sS'ripping'
p719
I1
sS'city'
p720
I1
sS'looong'
p721
I1
sS'Gentlemen"'
p722
I1
sS'Hmm'
p723
I1
sS'2'
p724
I54
sS'realization'
p725
I2
sS'bits'
p726
I2
sS'slasher'
p727
I8
sS'Patrick'
p728
I1
sS'kinkier'
p729
I1
sS'ridiculous'
p730
I17
sS'fooled'
p731
I1
sS'Kurt'
p732
I2
sS'boyfriend'
p733
I2
sS'ascendance'
p734
I1
sS':'
p735
I65
sS'iceberg'
p736
I2
sS'depressed'
p737
I1
sS'future'
p738
I3
sS'sequals'
p739
I2
sS'disasterous'
p740
I1
sS'illness'
p741
I1
sS'considerably'
p742
I1
sS'turned'
p743
I9
sS'argument'
p744
I1
sS'sad'
p745
I12
sS'Field'
p746
I1
sS'say'
p747
I63
sS'sap'
p748
I1
sS'saw'
p749
I49
sS'sat'
p750
I5
sS'fashionable'
p751
I1
sS'Jewish'
p752
I7
sS'aside'
p753
I4
sS'note'
p754
I3
sS'take'
p755
I32
sS'Half'
p756
I1
sS'Scorsese'
p757
I3
sS'convulsive'
p758
I1
sS'ANYWAYS'
p759
I1
sS'poorly-acted'
p760
I1
sS'knew'
p761
I8
sS'spewing'
p762
I3
sS'non-actors'
p763
I1
sS'defication'
p764
I1
sS'peice'
p765
I7
sS'average'
p766
I1
sS'infections'
p767
I1
sS'drive'
p768
I1
sS'federal'
p769
I1
sS'butchered'
p770
I1
sS'hazzard'
p771
I1
sS'addled'
p772
I1
sS'BOUGHT'
p773
I1
sS'Blue'
p774
I2
sS'walking'
p775
I3
sS'muderous'
p776
I1
sS'opportunist'
p777
I1
sS'merit'
p778
I4
sS'bright'
p779
I2
sS'inconsistent'
p780
I1
sS'slow'
p781
I9
sS'romanian'
p782
I1
sS'foward'
p783
I1
sS'tears'
p784
I1
sS'going'
p785
I65
sS'hockey'
p786
I1
sS'DRESSING'
p787
I1
sS'simplistic'
p788
I3
sS'Having'
p789
I1
sS'prime'
p790
I2
sS'Catwoman'
p791
I1
sS'artist'
p792
I2
sS'redeemed'
p793
I1
sS'Boycott'
p794
I1
sS'Disappointing'
p795
I1
sS'priest'
p796
I1
sS'YES'
p797
I1
sS'where'
p798
I36
sS'vision'
p799
I1
sS'Stood'
p800
I1
sS'sucky'
p801
I1
sS'long-distant'
p802
I1
sS'Ringu'
p803
I2
sS'Rings'
p804
I2
sS'Patricia'
p805
I1
sS'anyways'
p806
I1
sS'job-'
p807
I1
sS'WASTE'
p808
I4
sS'unscriptual'
p809
I1
sS'wielding'
p810
I1
sS'jumped'
p811
I1
sS'freeuk'
p812
I1
sS'poopy'
p813
I1
sS'goers'
p814
I1
sS'teeny'
p815
I4
sS'enjoys'
p816
I1
sS'Than'
p817
I4
sS'Bible'
p818
I4
sS'Harbor'
p819
I1
sS'screen'
p820
I15
sS'faded'
p821
I1
sS'His'
p822
I6
sS'spark'
p823
I1
sS'suppressed'
p824
I1
sS'puerile'
p825
I1
sS'farcical'
p826
I1
sS'many'
p827
I54
sS'cars'
p828
I1
sS's'
p829
I382
sS'good-looking'
p830
I1
sS'expression'
p831
I2
sS'synoptic'
p832
I1
sS'3000'
p833
I1
sS'considers'
p834
I1
sS'boat'
p835
I4
sS'caring'
p836
I2
sS'combines'
p837
I1
sS'stretch'
p838
I1
sS'Ladder'
p839
I1
sS'vacation'
p840
I2
sS'Winona'
p841
I9
sS'combined'
p842
I2
sS'motives'
p843
I1
sS'wants'
p844
I7
sS'Quills'
p845
I2
sS'gist'
p846
I1
sS'Whenever'
p847
I1
sS'thousand'
p848
I1
sS'Sucks'
p849
I2
sS'abject'
p850
I1
sS'former'
p851
I2
sS'PLOT'
p852
I1
sS'queasy'
p853
I1
sS'Cinema'
p854
I1
sS'pretence'
p855
I1
sS'Ouch'
p856
I1
sS'aperitif'
p857
I1
sS'operate'
p858
I2
sS'ive'
p859
I1
sS'unlikeable'
p860
I2
sS'DID'
p861
I2
sS'mutineers'
p862
I1
sS'twists'
p863
I2
sS'engaged'
p864
I1
sS'dubious'
p865
I1
sS'Looking'
p866
I2
sS'blah'
p867
I2
sS'Useless'
p868
I1
sS'technology'
p869
I1
sS'fame'
p870
I1
sS'rooting'
p871
I1
sS'Freddie'
p872
I2
sS'Blood'
p873
I2
sS'Bloom'
p874
I1
sS'breakdown'
p875
I2
sS'visually'
p876
I1
sS'I'
p877
I1385
sS'Hallie'
p878
I1
sS'pacino'
p879
I1
sS'watses'
p880
I1
sS'vacant'
p881
I2
sS'Busey'
p882
I1
sS'nothin'
p883
I1
sS'costs'
p884
I7
sS'summer'
p885
I2
sS'HBO'
p886
I2
sS'possesed'
p887
I1
sS'being'
p888
I47
sS'exaggerating'
p889
I1
sS'Bosom'
p890
I1
sS'rest'
p891
I13
sS'Daniel'
p892
I1
sS'Missy'
p893
I1
sS'summed'
p894
I1
sS'occasional'
p895
I2
sS'Zack'
p896
I1
sS'grounded'
p897
I1
sS'Travolta'
p898
I4
sS'Auburn-Mississippi'
p899
I1
sS'prominently'
p900
I1
sS'Andrews'
p901
I1
sS'Hitchcock'
p902
I3
sS'aspects'
p903
I1
sS'around'
p904
I28
sS'sums'
p905
I1
sS'dark'
p906
I13
sS'unedited'
p907
I1
sS'TBWP'
p908
I2
sS'traffic'
p909
I1
sS'darn'
p910
I2
sS'world'
p911
I26
sS'vague'
p912
I2
sS'bravery'
p913
I1
sS'61'
p914
I1
sS'clad'
p915
I1
sS'overhyped'
p916
I2
sS'claw'
p917
I2
sS'Man'
p918
I4
sS'FLY'
p919
I1
sS'Superscope'
p920
I1
sS'pushy'
p921
I1
sS'Manhatten'
p922
I2
sS'Seriously'
p923
I1
sS'demeaning'
p924
I1
sS'divine'
p925
I2
sS'thinks'
p926
I8
sS'riveting'
p927
I1
sS'memories'
p928
I1
sS'Amittyville'
p929
I1
sS'911'
p930
I2
sS'biased'
p931
I1
sS'squabble'
p932
I1
sS'power'
p933
I6
sS'booooo'
p934
I1
sS'liners'
p935
I1
sS'Ripley'
p936
I2
sS'joyfully'
p937
I1
sS'Pygmmalion'
p938
I1
sS'industry'
p939
I4
sS'favorite'
p940
I8
sS'Terminator'
p941
I2
sS'neighbor'
p942
I1
sS'act'
p943
I23
sS'Message'
p944
I1
sS'burning'
p945
I1
sS'No'
p946
I32
sS'image'
p947
I3
sS'freaked'
p948
I1
sS'Acting'
p949
I1
sS'DUMB'
p950
I1
sS'parties'
p951
I1
sS'portrayal'
p952
I3
sS'Empty'
p953
I1
sS'jerks'
p954
I1
sS'NJ'
p955
I1
sS'her'
p956
I97
sS'hes'
p957
I1
sS'hey'
p958
I3
sS'meals'
p959
I1
sS'mindless'
p960
I6
sS'WORST'
p961
I9
sS'bubble'
p962
I1
sS'Sabrina'
p963
I1
sS'project'
p964
I3
sS'OUTER'
p965
I1
sS'complete'
p966
I13
sS'Over-rated'
p967
I3
sS'Grotesquely'
p968
I1
sS'with'
p969
I313
sS'buying'
p970
I4
sS'handsome'
p971
I1
sS'abused'
p972
I1
sS'pull'
p973
I2
sS'rush'
p974
I1
sS'House'
p975
I5
sS'tripe'
p976
I7
sS'brain-dead'
p977
I1
sS'unhistorical'
p978
I1
sS'obviouse'
p979
I1
sS'dirty'
p980
I1
sS'Close'
p981
I3
sS'politically'
p982
I1
sS'agree'
p983
I13
sS'detailed'
p984
I1
sS'gone'
p985
I6
sS'carves'
p986
I1
sS'deferens'
p987
I1
sS'ad'
p988
I2
sS'fright'
p989
I2
sS'gratuitous'
p990
I4
sS'certain'
p991
I4
sS'accents'
p992
I5
sS'awry'
p993
I1
sS'am'
p994
I39
sS'al'
p995
I2
sS'ao'
p996
I1
sS'an'
p997
I154
sS'How'
p998
I28
sS'as'
p999
I304
sS'at'
p1000
I213
sS'caracter'
p1001
I1
sS'watched'
p1002
I45
sS'appalling'
p1003
I2
sS'Real'
p1004
I2
sS'lOVE'
p1005
I1
sS'Read'
p1006
I1
sS'bored'
p1007
I11
sS'graduate'
p1008
I2
sS'Simpsons'
p1009
I2
sS'tight'
p1010
I2
sS'implied'
p1011
I1
sS'Atlantic'
p1012
I1
sS'friggin'
p1013
I2
sS'incomprehensible'
p1014
I1
sS'alseep'
p1015
I1
sS'presenting'
p1016
I1
sS'Wide'
p1017
I3
sS'Alex'
p1018
I1
sS'2004'
p1019
I2
sS'refunded'
p1020
I1
sS'forgettable'
p1021
I1
sS'seriousness'
p1022
I1
sS'midget'
p1023
I1
sS'rostrum'
p1024
I1
sS'tricky'
p1025
I1
sS'mask'
p1026
I1
sS'mimic'
p1027
I1
sS'mass'
p1028
I2
sS'sawing'
p1029
I1
sS'original'
p1030
I36
sS'Canada'
p1031
I1
sS'consider'
p1032
I3
sS'caused'
p1033
I3
sS'Caesar'
p1034
I1
sS'Romeo'
p1035
I4
sS'reasoning'
p1036
I1
sS'causes'
p1037
I1
sS'pornographic'
p1038
I3
sS'tv'
p1039
I4
sS'daugher'
p1040
I1
sS'Evil'
p1041
I1
sS'WAR'
p1042
I1
sS'to'
p1043
I1194
sS'tail'
p1044
I1
sS'ritualistic'
p1045
I1
sS'th'
p1046
I1
sS'immitator'
p1047
I1
sS'norm'
p1048
I2
sS'appointment'
p1049
I1
sS'returned'
p1050
I2
sS'VILLAGE'
p1051
I1
sS'detention'
p1052
I1
sS'strang'
p1053
I1
sS'LOOK'
p1054
I1
sS'cable'
p1055
I1
sS'althought'
p1056
I1
sS'awsome'
p1057
I1
sS'laying'
p1058
I2
sS't3'
p1059
I1
sS'insufficiently'
p1060
I1
sS'large'
p1061
I3
sS'pesky'
p1062
I1
sS'sane'
p1063
I1
sS'small'
p1064
I6
sS'sank'
p1065
I1
sS'hour-'
p1066
I1
sS'Should'
p1067
I3
sS'past'
p1068
I10
sS'pass'
p1069
I4
sS'Lunch"'
p1070
I1
sS'method'
p1071
I1
sS'contrast'
p1072
I1
sS'SCREW'
p1073
I2
sS'hasn'
p1074
I1
sS'full'
p1075
I6
sS'2bux'
p1076
I1
sS'threatened'
p1077
I1
sS'portrays'
p1078
I2
sS'vomiting'
p1079
I2
sS'hours'
p1080
I28
sS'portrayl'
p1081
I1
sS'Angelina'
p1082
I2
sS'civilians'
p1083
I2
sS'concluding'
p1084
I1
sS'legend'
p1085
I3
sS'Silence'
p1086
I1
sS'hunts'
p1087
I1
sS'Almost'
p1088
I2
sS'experience'
p1089
I7
sS'pics'
p1090
I1
sS'prior'
p1091
I1
sS'social'
p1092
I2
sS'action'
p1093
I26
sS'murdering'
p1094
I1
sS'appealling'
p1095
I1
sS'followed'
p1096
I3
sS'SUCKS'
p1097
I2
sS'us-America'
p1098
I1
sS'gosh'
p1099
I1
sS'BigBaby'
p1100
I1
sS'poodle'
p1101
I1
sS'Romans'
p1102
I4
sS'Peak'
p1103
I1
sS'shakeing'
p1104
I1
sS'6'
p1105
I3
sS'Russian'
p1106
I1
sS'teeny-tiny'
p1107
I1
sS'more'
p1108
I109
sS'teen'
p1109
I3
sS'fast-forwarding'
p1110
I1
sS'fellow'
p1111
I1
sS'doos'
p1112
I1
sS'spiting'
p1113
I1
sS'company'
p1114
I5
sS'videoclip'
p1115
I1
sS'guesse'
p1116
I1
sS'Found'
p1117
I2
sS'cack'
p1118
I1
sS'keeping'
p1119
I2
sS'Gods'
p1120
I3
sS'bacause'
p1121
I1
sS'knocked'
p1122
I2
sS'merky'
p1123
I1
sS'male'
p1124
I5
sS'Cheesy'
p1125
I2
sS'beautiful'
p1126
I4
sS'soldeirs'
p1127
I1
sS'Molfan'
p1128
I1
sS'stated'
p1129
I3
sS'accept'
p1130
I2
sS'states'
p1131
I5
sS'WATERWORLD'
p1132
I1
sS'sense'
p1133
I27
sS'station'
p1134
I1
sS'disliked'
p1135
I1
sS'dress'
p1136
I2
sS'salts'
p1137
I1
sS'huge'
p1138
I13
sS'reattachment'
p1139
I1
sS'creature'
p1140
I1
sS'aplenty'
p1141
I1
sS'cornyness'
p1142
I1
sS'intended'
p1143
I3
sS'"never'
p1144
I1
sS'disgraced'
p1145
I1
sS'soundtrack'
p1146
I9
sS'plane'
p1147
I2
sS'pleaded'
p1148
I1
sS'authentic'
p1149
I2
sS'Kedward'
p1150
I2
sS'refuse'
p1151
I2
sS'imagery'
p1152
I1
sS'Simplemente'
p1153
I1
sS'twisting'
p1154
I1
sS'volleyball'
p1155
I1
sS'functionaries'
p1156
I1
sS'JFK'
p1157
I1
sS'trade'
p1158
I5
sS'attitude'
p1159
I2
sS'paper'
p1160
I6
sS'brim'
p1161
I1
sS'signs'
p1162
I1
sS'its'
p1163
I36
sS'astrology'
p1164
I2
sS'laced'
p1165
I2
sS'termed'
p1166
I1
sS'hemmorhage'
p1167
I1
sS'Charleton'
p1168
I1
sS'symptoms'
p1169
I1
sS'nifty'
p1170
I2
sS'sauce'
p1171
I1
sS'Sound'
p1172
I1
sS'tyrants'
p1173
I1
sS'entire'
p1174
I25
sS'sucker'
p1175
I1
sS'Michael'
p1176
I11
sS'Braff'
p1177
I1
sS'time----graphic'
p1178
I1
sS'subtitles'
p1179
I1
sS'sucked'
p1180
I64
sS'Elliot'
p1181
I1
sS'everytime'
p1182
I2
sS'always'
p1183
I16
sS'all-'
p1184
I1
sS'nauseous'
p1185
I2
sS'truths'
p1186
I1
sS'Thanks'
p1187
I4
sS'stepbrother'
p1188
I1
sS'best-acting'
p1189
I1
sS'found'
p1190
I29
sS'shocking'
p1191
I1
sS'begged'
p1192
I1
sS'Rose'
p1193
I2
sS'fastforward'
p1194
I1
sS'really'
p1195
I120
sS'takeing'
p1196
I1
sS'Picture'
p1197
I3
sS'Yuck'
p1198
I2
sS'missed'
p1199
I8
sS'sutherland'
p1200
I1
sS'research'
p1201
I1
sS'misses'
p1202
I1
sS'Dramatic'
p1203
I1
sS'Report'
p1204
I1
sS'belief'
p1205
I1
sS'THIRD'
p1206
I1
sS'drives'
p1207
I2
sS'SHE'
p1208
I2
sS'imagine'
p1209
I3
sS'weed'
p1210
I1
sS'director'
p1211
I20
sS'misogyny'
p1212
I1
sS'positioning'
p1213
I1
sS'Shape'
p1214
I1
sS'w'
p1215
I2
sS'reversing'
p1216
I1
sS'Dafoe'
p1217
I1
sS'god-awful'
p1218
I2
sS'plantetary'
p1219
I1
sS'number'
p1220
I2
sS'shameful'
p1221
I1
sS'guess'
p1222
I16
sS'heads'
p1223
I4
sS'introduction'
p1224
I1
sS'sodimized'
p1225
I1
sS'threatening'
p1226
I1
sS'flimsy'
p1227
I1
sS'omnipresent'
p1228
I1
sS'Rudy'
p1229
I1
sS'justly'
p1230
I1
sS'codswallop'
p1231
I1
sS'relationship'
p1232
I1
sS'interviewed'
p1233
I1
sS'immediate'
p1234
I1
sS'shallower'
p1235
I1
sS'focusing'
p1236
I2
sS'interviewer'
p1237
I1
sS'unrealistic'
p1238
I10
sS'grace'
p1239
I4
sS'critically'
p1240
I1
sS'vocal'
p1241
I1
sS'determined'
p1242
I1
sS'marriage'
p1243
I1
sS'art-house'
p1244
I1
sS'ranch'
p1245
I1
sS'Movie'
p1246
I9
sS'fights'
p1247
I3
sS'Connell'
p1248
I1
sS'magical'
p1249
I2
sS'pranksters'
p1250
I1
sS'sell'
p1251
I6
sS'Club'
p1252
I1
sS'self'
p1253
I3
sS'AHHHHHHH'
p1254
I1
sS'reliance'
p1255
I1
sS'also'
p1256
I34
sS'internal'
p1257
I1
sS'Othello'
p1258
I1
sS'Pluh-lease'
p1259
I1
sS'transparent'
p1260
I2
sS'relief'
p1261
I1
sS'play'
p1262
I17
sS'relied'
p1263
I1
sS'nasal'
p1264
I1
sS'virus'
p1265
I1
sS'Groove'
p1266
I1
sS'Cose'
p1267
I1
sS'FROM'
p1268
I2
sS'sometimes'
p1269
I2
sS'cover'
p1270
I1
sS'artistic'
p1271
I2
sS'Strangeland'
p1272
I1
sS'If'
p1273
I73
sS'dragged'
p1274
I7
sS'gospels'
p1275
I1
sS'golf'
p1276
I1
sS'gold'
p1277
I1
sS'Explain'
p1278
I1
sS'Had'
p1279
I2
sS'session'
p1280
I1
sS'Has'
p1281
I1
sS'impact'
p1282
I1
sS'Southerner'
p1283
I1
sS'ambivilent'
p1284
I1
sS'writer'
p1285
I4
sS'failed'
p1286
I9
sS'condom'
p1287
I1
sS'Confederate'
p1288
I1
sS'Spice'
p1289
I1
sS'Patriot'
p1290
I1
sS'uncontested'
p1291
I1
sS'Wife'
p1292
I1
sS'occuring'
p1293
I1
sS'actress'
p1294
I6
sS'compass'
p1295
I1
sS'frightening'
p1296
I3
sS'wiccan'
p1297
I1
sS'occassional'
p1298
I1
sS'disregarding'
p1299
I1
sS'tanked'
p1300
I1
sS'Hell'
p1301
I2
sS'obscure'
p1302
I1
sS'non-scary'
p1303
I2
sS'R-rated'
p1304
I6
sS'set'
p1305
I12
sS'For'
p1306
I15
sS'activists'
p1307
I1
sS'Fox'
p1308
I2
sS'sex'
p1309
I17
sS'see'
p1310
I153
sS'justification'
p1311
I1
sS'knees'
p1312
I1
sS'#'
p1313
I1
sS'unsettling'
p1314
I1
sS'muted'
p1315
I1
sS'movie'
p1316
I1128
sS'currently'
p1317
I1
sS'Sony'
p1318
I1
sS'propoganda'
p1319
I1
sS'monsters'
p1320
I2
sS'compliment'
p1321
I1
sS'knowing'
p1322
I5
sS'buoys'
p1323
I1
sS'targeted'
p1324
I1
sS'self-centered'
p1325
I2
sS'condones'
p1326
I1
sS'incident'
p1327
I1
sS'renewed'
p1328
I2
sS'Yeeee'
p1329
I1
sS'last'
p1330
I29
sS'Fitch'
p1331
I1
sS'thow'
p1332
I1
sS'barely'
p1333
I5
sS'Tybalt'
p1334
I1
sS'connection'
p1335
I2
sS'retarded'
p1336
I5
sS'whole'
p1337
I55
sS'whold'
p1338
I1
sS'load'
p1339
I3
sS'drunk'
p1340
I2
sS'Ludicrously'
p1341
I1
sS'loan'
p1342
I1
sS'community'
p1343
I1
sS'coincidence'
p1344
I1
sS'agents'
p1345
I3
sS'adaptation'
p1346
I1
sS'church'
p1347
I1
sS'sees'
p1348
I2
sS'unemotional'
p1349
I1
sS'worthless'
p1350
I4
sS'devil'
p1351
I3
sS'publishing'
p1352
I1
sS'Gibson'
p1353
I11
sS'acceptance'
p1354
I1
sS'Robbins'
p1355
I2
sS'extreme'
p1356
I3
sS'firm'
p1357
I1
sS'stoopid'
p1358
I1
sS'ABSOLUTELY'
p1359
I1
sS'awake'
p1360
I2
sS'Saudi'
p1361
I1
sS'receive'
p1362
I1
sS'towns'
p1363
I1
sS'Old'
p1364
I1
sS'straight'
p1365
I3
sS'budget'
p1366
I7
sS'forgetting'
p1367
I1
sS'konked'
p1368
I1
sS'cagey'
p1369
I1
sS'Cold'
p1370
I1
sS'Cole'
p1371
I1
sS'Miss'
p1372
I1
sS'robin'
p1373
I1
sS'pound'
p1374
I1
sS'hoping'
p1375
I8
sS'astupid'
p1376
I1
sS'Oscar-winning'
p1377
I1
sS'vow'
p1378
I2
sS'owes'
p1379
I1
sS'beautifully'
p1380
I2
sS'superheor'
p1381
I1
sS'funny'
p1382
I36
sS'jawbreaker'
p1383
I1
sS'DEGRADATION'
p1384
I1
sS'Nihilistic'
p1385
I1
sS'rules'
p1386
I2
sS'Ishtar'
p1387
I1
sS'virtually'
p1388
I2
sS'ugliness'
p1389
I2
sS'forgiveness'
p1390
I1
sS'affairs'
p1391
I1
sS'viewing'
p1392
I5
sS'levels'
p1393
I1
sS'zits'
p1394
I1
sS'rabid'
p1395
I1
sS'recent'
p1396
I3
sS'Project'
p1397
I4
sS'raters'
p1398
I1
sS'loathsome'
p1399
I1
sS'Son'
p1400
I1
sS'attrocity'
p1401
I1
sS'person'
p1402
I14
sS'strobe'
p1403
I1
sS'prpackaged'
p1404
I1
sS'4hrs'
p1405
I1
sS'Karl'
p1406
I1
sS'power-hungry'
p1407
I1
sS'above--just'
p1408
I1
sS'detract'
p1409
I1
sS'glitz'
p1410
I1
sS'HORROR'
p1411
I1
sS'Horrible'
p1412
I15
sS'Brando'
p1413
I1
sS'Frodo'
p1414
I1
sS'fitting'
p1415
I1
sS'eager'
p1416
I1
sS'parents'
p1417
I3
sS'crying'
p1418
I4
sS'depravity'
p1419
I1
sS'proposterous'
p1420
I1
sS'surprised'
p1421
I4
sS'Winslet'
p1422
I2
sS'Sundance'
p1423
I2
sS'On'
p1424
I2
sS'Ok'
p1425
I4
sS'demands'
p1426
I1
sS'Of'
p1427
I9
sS'couple'
p1428
I17
sS'emanating'
p1429
I1
sS'wives'
p1430
I2
sS'suffering'
p1431
I5
sS'quest'
p1432
I1
sS'Oz'
p1433
I1
sS'Or'
p1434
I3
sS'ON'
p1435
I2
sS'OK'
p1436
I8
sS'd'
p1437
I29
sS'marquee'
p1438
I1
sS'OF'
p1439
I10
sS'Highly'
p1440
I1
sS'consensus'
p1441
I2
sS'continue'
p1442
I2
sS'WEDDING'
p1443
I1
sS'Bones'
p1444
I4
sS'stylish'
p1445
I1
sS'OR'
p1446
I2
sS'Bonet'
p1447
I1
sS'Likeable'
p1448
I1
sS'Fahrenheit'
p1449
I2
sS'Andy'
p1450
I1
sS'flaying'
p1451
I1
sS'curious'
p1452
I1
sS'pale'
p1453
I1
sS'Dame'
p1454
I1
sS'Confidential'
p1455
I1
sS'BORING'
p1456
I11
sS'dog-gone-it'
p1457
I1
sS'religion'
p1458
I5
sS'behave'
p1459
I1
sS'be'
p1460
I267
sS'Look'
p1461
I1
sS'crooks'
p1462
I1
sS'odor'
p1463
I1
sS'agreement'
p1464
I1
sS'Antonio'
p1465
I1
sS'Hella'
p1466
I1
sS'Congressmen'
p1467
I1
sS'by'
p1468
I129
sS'anything'
p1469
I46
sS'disjointed'
p1470
I1
sS'deserves'
p1471
I6
sS'breasted'
p1472
I1
sS'Pokemon'
p1473
I3
sS'Katie'
p1474
I3
sS'MENTAL'
p1475
I1
sS'garbage'
p1476
I24
sS'into'
p1477
I69
sS'puke'
p1478
I2
sS'Baby"'
p1479
I1
sS'NEW'
p1480
I2
sS'Rip-off'
p1481
I1
sS'Manichaean'
p1482
I1
sS'span'
p1483
I1
sS'spending'
p1484
I1
sS'gross-out'
p1485
I2
sS'thirdly'
p1486
I1
sS'suit'
p1487
I3
sS'walls'
p1488
I1
sS'morality'
p1489
I1
sS'opens'
p1490
I1
sS'Sixth'
p1491
I1
sS'Holocaust'
p1492
I3
sS'undeserving'
p1493
I2
sS'archaic'
p1494
I1
sS'line'
p1495
I8
sS'Mark'
p1496
I1
sS'Jeff'
p1497
I4
sS'Africa'
p1498
I2
sS'up'
p1499
I102
sS'us'
p1500
I24
sS'redeemer'
p1501
I1
sS'un'
p1502
I1
sS'mature'
p1503
I1
sS'Brits'
p1504
I1
sS'Master'
p1505
I1
sS'vengence'
p1506
I1
sS'Supposedly'
p1507
I1
sS'perfectly-AWFUL'
p1508
I1
sS'Malkovich'
p1509
I2
sS'underscoring'
p1510
I1
sS'preventing'
p1511
I1
sS'definitely'
p1512
I6
sS'actors'
p1513
I45
sS'Grandma'
p1514
I1
sS'Arthurian'
p1515
I1
sS'tedium'
p1516
I1
sS'elements'
p1517
I3
sS'beginnings'
p1518
I1
sS'provided'
p1519
I2
sS'sided'
p1520
I1
sS'B-O-R-I-N-G'
p1521
I1
sS'sides'
p1522
I2
sS'tedius'
p1523
I1
sS'atmoshere'
p1524
I1
sS'ago'
p1525
I10
sS'land'
p1526
I1
sS'wafer'
p1527
I1
sS'Training'
p1528
I1
sS'age'
p1529
I7
sS'Ritter'
p1530
I1
sS'walked'
p1531
I16
sS'Webber'
p1532
I1
sS'hella'
p1533
I4
sS'inaccuracy'
p1534
I1
sS'fresh'
p1535
I1
sS'infinately'
p1536
I1
sS'having'
p1537
I17
sS'Razor'
p1538
I1
sS'seemes'
p1539
I1
sS'Jim'
p1540
I4
sS'results'
p1541
I1
sS'astronauts'
p1542
I1
sS'enjoyable'
p1543
I1
sS'broader'
p1544
I1
sS'freakin'
p1545
I1
sS'Goldblum'
p1546
I2
sS'churned'
p1547
I1
sS'seemed'
p1548
I25
sS'Supporting'
p1549
I1
sS'Pathetic'
p1550
I5
sS'concerned'
p1551
I1
sS'young'
p1552
I6
sS'send'
p1553
I3
sS'dislike'
p1554
I3
sS'sent'
p1555
I1
sS'Frankenstien'
p1556
I1
sS'torture'
p1557
I8
sS'continues'
p1558
I2
sS'Carey'
p1559
I3
sS'well-done'
p1560
I1
sS'manipulated'
p1561
I1
sS'manhatton'
p1562
I1
sS'mixing'
p1563
I1
sS'wipe'
p1564
I1
sS'detested'
p1565
I1
sS'magic'
p1566
I8
sS'opiniones'
p1567
I1
sS'horor'
p1568
I1
sS'assclown'
p1569
I1
sS'try'
p1570
I17
sS'ONLY'
p1571
I2
sS'race'
p1572
I9
sS'that4hrs'
p1573
I1
sS'athlete'
p1574
I1
sS'Tedious'
p1575
I1
sS'pledge'
p1576
I2
sS'cannibals'
p1577
I1
sS'Mainly'
p1578
I1
sS'imply'
p1579
I1
sS'video'
p1580
I22
sS'odd'
p1581
I2
sS'leakage'
p1582
I1
sS'graduating'
p1583
I1
sS'reproduce'
p1584
I1
sS'cheaply'
p1585
I1
sS'JUST'
p1586
I3
sS'Darth'
p1587
I4
sS'expressed'
p1588
I2
sS'Chainsaw'
p1589
I3
sS'WITCH'
p1590
I1
sS'Dull'
p1591
I1
sS'scenery'
p1592
I1
sS'led'
p1593
I2
sS'Newton-John'
p1594
I2
sS'leg'
p1595
I1
sS'punch'
p1596
I2
sS'let'
p1597
I21
sS'second-rate'
p1598
I1
sS'invented'
p1599
I1
sS'fifteen'
p1600
I3
sS'McKellan'
p1601
I2
sS'great'
p1602
I70
sS'engage'
p1603
I1
sS'blabering'
p1604
I1
sS'technical'
p1605
I2
sS'involved'
p1606
I6
sS'titanic'
p1607
I1
sS'Alien'
p1608
I2
sS'insulin'
p1609
I1
sS'popcorn'
p1610
I1
sS'opinion'
p1611
I11
sS'makes'
p1612
I34
sS'maker'
p1613
I2
sS'thats'
p1614
I2
sS'Mountain'
p1615
I1
sS'atheletes'
p1616
I1
sS'Rock'
p1617
I2
sS'sensitize'
p1618
I1
sS'dumbest'
p1619
I1
sS'standing'
p1620
I3
sS'confidence'
p1621
I1
sS'cheered'
p1622
I2
sS'illegal'
p1623
I3
sS'next'
p1624
I15
sS'doubt'
p1625
I6
sS'pencil'
p1626
I1
sS'Plain'
p1627
I1
sS'hair-cut'
p1628
I1
sS'soooooooo'
p1629
I1
sS'Gump'
p1630
I1
sS'rubbish'
p1631
I4
sS'baby'
p1632
I2
sS'dicing'
p1633
I1
sS'promotional'
p1634
I2
sS'Generations'
p1635
I1
sS'customer'
p1636
I1
sS'high'
p1637
I23
sS'LOST'
p1638
I1
sS'this'
p1639
I954
sS'challenge'
p1640
I2
sS'insists'
p1641
I2
sS'aperson'
p1642
I1
sS'mommas'
p1643
I1
sS'Spoonfuls'
p1644
I1
sS'thin'
p1645
I6
sS'drill'
p1646
I1
sS'Subtle'
p1647
I1
sS'thie'
p1648
I1
sS'Police'
p1649
I1
sS'Dreadfully'
p1650
I1
sS'psiquiatrist'
p1651
I1
sS'process'
p1652
I3
sS'transpired'
p1653
I1
sS'pieces'
p1654
I11
sS'depiction'
p1655
I3
sS'slit'
p1656
I1
sS'slip'
p1657
I1
sS'rods'
p1658
I1
sS'TRYING'
p1659
I1
sS'Christmas'
p1660
I1
sS'martyr'
p1661
I1
sS'destroying'
p1662
I1
sS'animal'
p1663
I1
sS'Costner'
p1664
I1
sS'comedy'
p1665
I13
sS'intelligent'
p1666
I4
sS'tied'
p1667
I2
sS'Q'
p1668
I2
sS'paintball'
p1669
I1
sS'franchises'
p1670
I3
sS'cabbage'
p1671
I1
sS'Usual'
p1672
I1
sS'no-talents'
p1673
I1
sS'realized'
p1674
I2
sS'muppets'
p1675
I3
sS'CRAP'
p1676
I8
sS'Apple'
p1677
I1
sS'kedwai'
p1678
I1
sS'robot'
p1679
I2
sS'redundant'
p1680
I2
sS'One'
p1681
I46
sS'sc-fi'
p1682
I1
sS'Laugh'
p1683
I1
sS'classy'
p1684
I1
sS'MESSAGE'
p1685
I1
sS'counted'
p1686
I1
sS'over-elaborate'
p1687
I1
sS'Catholic'
p1688
I1
sS'boxing'
p1689
I2
sS'producer'
p1690
I2
sS'BIGBABY'
p1691
I1
sS'move'
p1692
I8
sS'produced'
p1693
I3
sS'marketing-fest'
p1694
I1
sS'perfect'
p1695
I3
sS'Extremly'
p1696
I1
sS'chosen'
p1697
I2
sS'shudder'
p1698
I1
sS'degrees'
p1699
I1
sS'drumline'
p1700
I1
sS'hobby'
p1701
I1
sS'Haven'
p1702
I2
sS'cuss'
p1703
I1
sS'heavy-handed'
p1704
I1
sS'bothering'
p1705
I1
sS'legendary'
p1706
I1
sS'TICKET'
p1707
I1
sS'pompous'
p1708
I2
sS'realize'
p1709
I3
sS'Sam'
p1710
I4
sS'Rental'
p1711
I1
sS'Sad'
p1712
I1
sS'Conan'
p1713
I2
sS'truth'
p1714
I3
sS'shortage'
p1715
I1
sS'accounts'
p1716
I1
sS'beneath'
p1717
I1
sS'Saw'
p1718
I4
sS'Kate'
p1719
I2
sS'glasses'
p1720
I1
sS'STAR'
p1721
I1
sS'Network'
p1722
I1
sS'doing'
p1723
I17
sS'in-your-face'
p1724
I1
sS'Wolverine'
p1725
I1
sS'society'
p1726
I3
sS'books'
p1727
I8
sS'FUN'
p1728
I1
sS'banal'
p1729
I1
sS"'"
p1730
I1175
sS'Very'
p1731
I15
sS'extremley'
p1732
I2
sS'Vera'
p1733
I1
sS'favours'
p1734
I1
sS'hilarious'
p1735
I2
sS'shut'
p1736
I2
sS'philosophy'
p1737
I1
sS'interactions'
p1738
I1
sS'greedy'
p1739
I1
sS'Freddy'
p1740
I11
sS'surely'
p1741
I5
sS'Ryan'
p1742
I5
sS'Spend'
p1743
I1
sS'scary'
p1744
I91
sS'could'
p1745
I113
sS'Jesus'
p1746
I18
sS'length'
p1747
I1
sS'bah'
p1748
I1
sS'chills'
p1749
I1
sS'scare'
p1750
I6
sS'equates'
p1751
I1
sS'blown'
p1752
I2
sS'scene'
p1753
I31
sS'owned'
p1754
I1
sS'jesus'
p1755
I1
sS'stark'
p1756
I1
sS'Kubric'
p1757
I1
sS'blows'
p1758
I3
sS'ugling'
p1759
I1
sS'fascinating'
p1760
I3
sS'percussion'
p1761
I1
sS'AMERICANS'
p1762
I2
sS'sergeant'
p1763
I1
sS'promedios'
p1764
I1
sS'Iraq'
p1765
I3
sS'spaceship'
p1766
I2
sS'painful'
p1767
I8
sS'stomach'
p1768
I3
sS'lot'
p1769
I24
sS'shorts'
p1770
I1
sS'Pretentious'
p1771
I1
sS'depressing'
p1772
I9
sS'applauds'
p1773
I1
sS'elite'
p1774
I1
sS'haven'
p1775
I8
sS'OMG'
p1776
I2
sS'bother'
p1777
I8
sS'extraordinarily'
p1778
I1
sS'tortured'
p1779
I4
sS'gkass'
p1780
I1
sS'appealing'
p1781
I1
sS'HORRIBLE'
p1782
I9
sS'torrent'
p1783
I1
sS'steer'
p1784
I2
sS'false'
p1785
I1
sS'viewer'
p1786
I7
sS'abomination'
p1787
I1
sS'gentle'
p1788
I1
sS'Secret'
p1789
I1
sS'element'
p1790
I1
sS'clearly'
p1791
I2
sS'Focuses'
p1792
I1
sS'MOCKERY'
p1793
I1
sS'BIG'
p1794
I3
sS'uncalled'
p1795
I1
sS'ashore'
p1796
I1
sS'Invisible'
p1797
I1
sS'soap'
p1798
I1
sS'accuracy'
p1799
I1
sS'Pierce'
p1800
I1
sS'allow'
p1801
I1
sS'death-inducing'
p1802
I1
sS'sophomoric'
p1803
I1
sS'THINK'
p1804
I1
sS'STINKS'
p1805
I1
sS'so-called'
p1806
I4
sS'placement'
p1807
I2
sS'terorrists'
p1808
I1
sS'face'
p1809
I14
sS'fact'
p1810
I22
sS'TAXI'
p1811
I1
sS'Paris'
p1812
I2
sS'perversion'
p1813
I1
sS'Rangers'
p1814
I1
sS'WANT'
p1815
I1
sS'bedroom'
p1816
I1
sS'ripoff'
p1817
I2
sS'trivial'
p1818
I1
sS'decade'
p1819
I2
sS'jay'
p1820
I1
sS'Update'
p1821
I1
sS'should'
p1822
I83
sS'tape'
p1823
I8
sS'Imax'
p1824
I1
sS'hope'
p1825
I8
sS'meant'
p1826
I3
sS'handle'
p1827
I1
sS'means'
p1828
I5
sS'familiar'
p1829
I2
sS'lucky'
p1830
I1
sS'Keep'
p1831
I1
sS'molasses'
p1832
I1
sS'antagonist'
p1833
I2
sS'Once'
p1834
I3
sS'smash'
p1835
I1
sS'Because'
p1836
I5
sS'centerist'
p1837
I1
sS'hemorrhoid'
p1838
I1
sS'Nah-uh'
p1839
I1
sS'Paltrow'
p1840
I2
sS'comics'
p1841
I2
sS'stuff'
p1842
I16
sS'frame'
p1843
I1
sS'10-year-old'
p1844
I1
sS'wire'
p1845
I1
sS'destiny'
p1846
I1
sS'insulting'
p1847
I2
sS'see-through'
p1848
I1
sS'rolled'
p1849
I2
sS'WARNING'
p1850
I1
sS'NINE'
p1851
I1
sS'Jackman'
p1852
I1
sS'Republican'
p1853
I2
sS'email'
p1854
I1
sS'PM'
p1855
I1
sS'ends'
p1856
I3
sS'midichlorian'
p1857
I1
sS'BLECHHHH'
p1858
I1
sS'staring'
p1859
I1
sS'figured'
p1860
I6
sS'drug'
p1861
I3
sS'etc'
p1862
I15
sS'figures'
p1863
I2
sS'Sea'
p1864
I1
sS'humanoid'
p1865
I1
sS'Christ'
p1866
I5
sS'Her'
p1867
I3
sS'Barbie'
p1868
I1
sS'Girls'
p1869
I1
sS'Hey'
p1870
I5
sS'crafted'
p1871
I1
sS'cr'
p1872
I1
sS'THis'
p1873
I3
sS'outsider'
p1874
I2
sS'Get'
p1875
I4
sS'\xa9'
p1876
I1
sS'cinema'
p1877
I4
sS'Jango'
p1878
I1
sS'blatant'
p1879
I1
sS'roller'
p1880
I1
sS'Gee'
p1881
I1
sS'waste'
p1882
I64
sS'Gen'
p1883
I1
sS'CLOSER'
p1884
I1
sS'hateful'
p1885
I2
sS'graphics'
p1886
I7
sS'genghis'
p1887
I1
sS'CALL'
p1888
I1
sS'Number'
p1889
I3
sS'pretentious'
p1890
I6
sS'grinning'
p1891
I1
sS'expiration'
p1892
I1
sS'rigged'
p1893
I1
sS'bathtub'
p1894
I1
sS'Hehe'
p1895
I1
sS'adapter'
p1896
I1
sS've'
p1897
I70
sS'wardrobes'
p1898
I1
sS'insanely'
p1899
I2
sS'surprisingly'
p1900
I1
sS'rips'
p1901
I1
sS'vs'
p1902
I7
sS'optimistic'
p1903
I1
sS'sits'
p1904
I2
sS'greater'
p1905
I1
sS'ostentatious'
p1906
I1
sS'denial'
p1907
I2
sS'yuppie'
p1908
I1
sS'romance'
p1909
I2
sS'FX'
p1910
I2
sS'unimaginable'
p1911
I1
sS'Douche'
p1912
I1
sS'emotionally'
p1913
I2
sS'bald'
p1914
I2
sS'upon'
p1915
I4
sS'Grey'
p1916
I2
sS'laughably'
p1917
I1
sS'cheering'
p1918
I2
sS'identity'
p1919
I1
sS'discounted'
p1920
I1
sS'forty-eight'
p1921
I1
sS'reguarded'
p1922
I1
sS'Julie'
p1923
I2
sS'Julia'
p1924
I6
sS'Need'
p1925
I1
sS'lest'
p1926
I2
sS'Suspects'
p1927
I1
sS'kiss'
p1928
I1
sS'flesh'
p1929
I3
sS'moments'
p1930
I16
sS'Hayden'
p1931
I1
sS'elemental'
p1932
I1
sS'DEAR'
p1933
I1
sS'broomstick'
p1934
I1
sS'web'
p1935
I1
sS'Unbelievable'
p1936
I1
sS'wee'
p1937
I1
sS'floor-faced'
p1938
I1
sS'METER'
p1939
I1
sS'day'
p1940
I21
sS'combine'
p1941
I1
sS'crack'
p1942
I1
sS'dis-tasteful'
p1943
I1
sS'vain'
p1944
I1
sS'innocents'
p1945
I1
sS'increased'
p1946
I1
sS'government'
p1947
I2
sS'checking'
p1948
I1
sS'famously'
p1949
I1
sS'crud'
p1950
I6
sS'five'
p1951
I9
sS'Pinoccio'
p1952
I1
sS'fools'
p1953
I3
sS'forcing'
p1954
I2
sS'Creek'
p1955
I2
sS'bigotry'
p1956
I1
sS'become'
p1957
I4
sS'Latournoesque'
p1958
I1
sS'Quit'
p1959
I1
sS'zzzzz'
p1960
I1
sS'slacked'
p1961
I1
sS'footage'
p1962
I3
sS'poop'
p1963
I1
sS'gymnastics'
p1964
I1
sS'big-budget'
p1965
I1
sS'elitist'
p1966
I1
sS'whqat'
p1967
I1
sS'thier'
p1968
I2
sS'blonde'
p1969
I1
sS'recognition'
p1970
I1
sS'henchman'
p1971
I1
sS'literally'
p1972
I4
sS'avoid'
p1973
I6
sS'salaries'
p1974
I1
sS'Gaynor'
p1975
I1
sS'anti-semitism'
p1976
I3
sS'passion'
p1977
I2
sS'blurry'
p1978
I1
sS'blowing'
p1979
I2
sS'shortchanging'
p1980
I1
sS'naff'
p1981
I1
sS'sister'
p1982
I1
sS'Sci'
p1983
I1
sS'ABOMINATION'
p1984
I1
sS'charachter'
p1985
I1
sS'cameron'
p1986
I3
sS'documentary'
p1987
I6
sS'booed'
p1988
I1
sS'snuggling'
p1989
I1
sS'mere'
p1990
I2
sS'bothers'
p1991
I1
sS'Gentiles'
p1992
I1
sS'spots'
p1993
I2
sS'bump'
p1994
I1
sS'SciFi'
p1995
I2
sS'troubling'
p1996
I1
sS'ditsy'
p1997
I1
sS'naturally'
p1998
I1
sS'building'
p1999
I1
sS'Talent'
p2000
I1
sS'perpetuation'
p2001
I1
sS'screwups'
p2002
I1
sS'Well'
p2003
I9
sS'lowered'
p2004
I1
sS'interseting'
p2005
I1
sS'count'
p2006
I3
sS'Gettysburg'
p2007
I1
sS'excitement'
p2008
I2
sS'placed'
p2009
I1
sS'convince'
p2010
I6
sS'travesties'
p2011
I1
sS'problem'
p2012
I7
sS'krueger'
p2013
I1
sS'odds'
p2014
I3
sS'cordial'
p2015
I1
sS'irish'
p2016
I2
sS'recognize'
p2017
I1
sS'ing'
p2018
I3
sS'mantels'
p2019
I1
sS'Rustin'
p2020
I1
sS'compared'
p2021
I1
sS'variety'
p2022
I1
sS'trials'
p2023
I1
sS'eastern'
p2024
I1
sS'Utah'
p2025
I1
sS'ludicris'
p2026
I1
sS'popping'
p2027
I2
sS'behold'
p2028
I1
sS'DAY'
p2029
I1
sS'moviehouses'
p2030
I1
sS'repeat'
p2031
I2
sS'Lost'
p2032
I7
sS'CG'
p2033
I2
sS'unoriginal'
p2034
I1
sS'chance'
p2035
I3
sS'disminished'
p2036
I1
sS'Congressman'
p2037
I2
sS'veil'
p2038
I1
sS'vein'
p2039
I1
sS'exposure'
p2040
I1
sS'stunt'
p2041
I1
sS'DenJu'
p2042
I1
sS'suicidal'
p2043
I1
sS'Gremlins'
p2044
I1
sS'personally'
p2045
I4
sS'bizzare'
p2046
I1
sS'saved'
p2047
I6
sS'stinks'
p2048
I6
sS'porno'
p2049
I2
sS'stinky'
p2050
I1
sS'Watch'
p2051
I1
sS'PHILADELPHIA'
p2052
I1
sS'endings'
p2053
I2
sS'tickle'
p2054
I1
sS'edward'
p2055
I1
sS'voted'
p2056
I2
sS'stinko'
p2057
I1
sS'worth'
p2058
I21
sS'litle'
p2059
I1
sS'alternating'
p2060
I1
sS'Keaton'
p2061
I2
sS'distort'
p2062
I1
sS'manic'
p2063
I2
sS'Military'
p2064
I1
sS'tickets'
p2065
I2
sS'fruitcake'
p2066
I1
sS'red'
p2067
I3
sS'MAN'
p2068
I1
sS'Wuhl'
p2069
I1
sS'originate'
p2070
I1
sS'blasphemy'
p2071
I3
sS'Whoopee'
p2072
I1
sS'preacher'
p2073
I1
sS'depraved'
p2074
I1
sS'Strange'
p2075
I2
sS'7th'
p2076
I1
sS'sorriest'
p2077
I2
sS'machines'
p2078
I1
sS'LSD'
p2079
I1
sS'settlement'
p2080
I1
sS'Partly'
p2081
I1
sS'+'
p2082
I5
sS'Visual'
p2083
I1
sS'above'
p2084
I5
sS'Sally'
p2085
I1
sS'consisting'
p2086
I1
sS'told'
p2087
I9
sS'textures'
p2088
I1
sS'extremly'
p2089
I3
sS'sinks'
p2090
I1
sS'habla'
p2091
I1
sS'Stiles'
p2092
I4
sS'celebration'
p2093
I1
sS'Hilfiger'
p2094
I1
sS'daughter'
p2095
I7
sS'GIVING'
p2096
I1
sS'study'
p2097
I1
sS'Queen'
p2098
I1
sS'cash--unless'
p2099
I1
sS'smoke'
p2100
I1
sS'aka'
p2101
I1
sS'Absolute'
p2102
I2
sS'Orleans'
p2103
I1
sS'Connery'
p2104
I2
sS'highly'
p2105
I7
sS'cheats'
p2106
I1
sS'Satan'
p2107
I7
sS'total'
p2108
I13
sS'bra'
p2109
I1
sS'plot'
p2110
I110
sS'Star'
p2111
I26
sS'ploy'
p2112
I1
sS'negative'
p2113
I9
sS'insult'
p2114
I7
sS'unrehearsed'
p2115
I1
sS'sweated'
p2116
I1
sS'abusing'
p2117
I1
sS'FORCED'
p2118
I1
sS'Chianti'
p2119
I1
sS'award'
p2120
I3
sS'allies'
p2121
I1
sS'Normally'
p2122
I1
sS'self-involved'
p2123
I1
sS'word'
p2124
I17
sS'1994'
p2125
I1
sS'divorced'
p2126
I1
sS'1996'
p2127
I2
sS'1999'
p2128
I1
sS'1998'
p2129
I1
sS'work'
p2130
I23
sS'Liberals'
p2131
I1
sS'worn'
p2132
I1
sS'era'
p2133
I3
sS'deprived'
p2134
I1
sS'discusted'
p2135
I1
sS'EVER'
p2136
I6
sS'looooong'
p2137
I1
sS'heartless'
p2138
I1
sS'Couldn'
p2139
I5
sS'disguistingly'
p2140
I1
sS'masscre'
p2141
I1
sS'farce'
p2142
I1
sS'provide'
p2143
I1
sS'agony'
p2144
I1
sS'nuts'
p2145
I2
sS'interview'
p2146
I1
sS'ordinary'
p2147
I2
sS'beach'
p2148
I3
sS'Renee'
p2149
I3
sS'fever'
p2150
I1
sS'Wilt'
p2151
I1
sS'over-when'
p2152
I1
sS'earlier'
p2153
I4
sS'Interrupted'
p2154
I1
sS'Will'
p2155
I5
sS'Wild'
p2156
I1
sS'law'
p2157
I5
sS'lap'
p2158
I1
sS'appreciate'
p2159
I4
sS'greek'
p2160
I3
sS'green'
p2161
I2
sS'worst'
p2162
I131
sS'Trust'
p2163
I2
sS'order'
p2164
I2
sS'Hustler'
p2165
I1
sS'infested'
p2166
I1
sS'office'
p2167
I3
sS'F---'
p2168
I1
sS'Jackass'
p2169
I1
sS'Visually'
p2170
I1
sS'somewhere'
p2171
I2
sS'Drew'
p2172
I1
sS'production'
p2173
I4
sS'Burns'
p2174
I1
sS'then'
p2175
I37
sS'them'
p2176
I65
sS'Coppola'
p2177
I1
sS'safe'
p2178
I1
sS'break'
p2179
I5
sS'repulsive'
p2180
I1
sS'Omar'
p2181
I1
sS'they'
p2182
I176
sS'bank'
p2183
I3
sS'Taming'
p2184
I1
sS'say-horrible'
p2185
I1
sS'classified'
p2186
I3
sS'slavery'
p2187
I2
sS'rocks'
p2188
I1
sS'Marque'
p2189
I1
sS'meritorus'
p2190
I1
sS'reasonable'
p2191
I1
sS'no-talent'
p2192
I2
sS'crimes'
p2193
I1
sS'SOME'
p2194
I1
sS'Aside'
p2195
I3
sS'recognizable'
p2196
I1
sS'whining'
p2197
I1
sS'Myth'
p2198
I1
sS'cameras'
p2199
I3
sS'hooked'
p2200
I1
sS'Wars'
p2201
I13
sS'strangers'
p2202
I1
sS'hoofer'
p2203
I1
sS'Ward'
p2204
I1
sS'forth'
p2205
I2
sS'non-obnoxious'
p2206
I1
sS'Originally'
p2207
I1
sS'standard'
p2208
I2
sS'Gethsemane'
p2209
I1
sS'enlightened'
p2210
I1
sS'Scare'
p2211
I1
sS'Ugh'
p2212
I3
sS'unfulfilled'
p2213
I1
sS'maniac'
p2214
I3
sS'creates'
p2215
I1
sS'lousy'
p2216
I1
sS'oppose'
p2217
I1
sS'redeaming'
p2218
I2
sS'Bridges'
p2219
I3
sS'another'
p2220
I37
sS'comic'
p2221
I10
sS'electronic'
p2222
I1
sS'rated'
p2223
I12
sS'defineable'
p2224
I1
sS'WAAAAAAYYYYY'
p2225
I1
sS'\xad'
p2226
I3
sS'airs'
p2227
I1
sS'rates'
p2228
I2
sS'BELIEVE'
p2229
I1
sS'dogs'
p2230
I1
sS'B'
p2231
I1
sS'happily'
p2232
I2
sS'albert'
p2233
I1
sS'Acadamy'
p2234
I1
sS'wastes'
p2235
I2
sS'tabloids'
p2236
I1
sS'wasted'
p2237
I20
sS'dimwitted'
p2238
I1
sS'hog-tie'
p2239
I1
sS'mercy'
p2240
I1
sS'glorified'
p2241
I2
sS'scenes'
p2242
I30
sS'glorifies'
p2243
I1
sS'See'
p2244
I6
sS'guilt'
p2245
I1
sS'historical'
p2246
I6
sS'Hazzard'
p2247
I1
sS'Madonna'
p2248
I2
sS'powers'
p2249
I4
sS'minus'
p2250
I3
sS'Crap'
p2251
I1
sS'money-grubbing'
p2252
I1
sS'Romero'
p2253
I4
sS'manner'
p2254
I2
sS'bleeech'
p2255
I1
sS'Instead'
p2256
I8
sS'Correct'
p2257
I2
sS'contents'
p2258
I1
sS'forced'
p2259
I9
sS'strength'
p2260
I1
sS'genuine'
p2261
I1
sS'latter'
p2262
I1
sS'circles'
p2263
I1
sS'Lucy'
p2264
I1
sS'involving'
p2265
I3
sS'scripts'
p2266
I5
sS'Silly'
p2267
I1
sS'Side'
p2268
I1
sS'grave'
p2269
I3
sS'Tried'
p2270
I2
sS'flops'
p2271
I1
sS'Lewis'
p2272
I1
sS'duckling'
p2273
I1
sS'unsophisticated'
p2274
I1
sS'sun'
p2275
I1
sS'notion'
p2276
I2
sS'fitted'
p2277
I1
sS'renting'
p2278
I10
sS'bimbo'
p2279
I2
sS'Anne'
p2280
I2
sS'FUBAR'
p2281
I1
sS'lense'
p2282
I1
sS'enjoyed'
p2283
I4
sS'Thank'
p2284
I7
sS'resemblance'
p2285
I1
sS'Republicans'
p2286
I1
sS'Krueger'
p2287
I1
sS'squirmed'
p2288
I1
sS'insomniacs'
p2289
I1
sS'AHHHHH'
p2290
I1
sS'personality'
p2291
I5
sS'do'
p2292
I95
sS'Gore-invented'
p2293
I1
sS'de'
p2294
I1
sS'Aerosmiths'
p2295
I1
sS'carries'
p2296
I1
sS'nasty'
p2297
I3
sS'beleive'
p2298
I3
sS'runs'
p2299
I2
sS'gears'
p2300
I1
sS'wannabe'
p2301
I1
sS'steak'
p2302
I2
sS'Marys'
p2303
I1
sS'Jackson'
p2304
I3
sS'miserably'
p2305
I4
sS'depends'
p2306
I1
sS'Foster'
p2307
I2
sS'cattle'
p2308
I1
sS'Judeo-Christian'
p2309
I1
sS'miserable'
p2310
I3
sS'Hardly'
p2311
I1
sS'Scarlett'
p2312
I1
sS'pasted'
p2313
I1
sS'away'
p2314
I29
sS'BUT'
p2315
I2
sS'rushing'
p2316
I1
sS'props'
p2317
I1
sS'drawn'
p2318
I5
sS'previous'
p2319
I5
sS'story-lined'
p2320
I1
sS'circumspect'
p2321
I1
sS'we'
p2322
I67
sS'terms'
p2323
I1
sS'insta-freeze'
p2324
I1
sS'Duck'
p2325
I1
sS'packaged'
p2326
I1
sS'myeres'
p2327
I1
sS'sickens'
p2328
I1
sS'predicable'
p2329
I1
sS'films-'
p2330
I1
sS'bras'
p2331
I1
sS'received'
p2332
I3
sS'essentially'
p2333
I1
sS'cow'
p2334
I2
sS'herendously'
p2335
I1
sS'ill'
p2336
I4
sS'ilm'
p2337
I1
sS'unctuous'
p2338
I1
sS'Bring'
p2339
I1
sS'requests'
p2340
I1
sS'com'
p2341
I4
sS'bran'
p2342
I1
sS'con'
p2343
I1
sS'tone'
p2344
I3
sS'spear'
p2345
I1
sS'Weak'
p2346
I2
sS'trunk'
p2347
I1
sS'tons'
p2348
I2
sS'frenetic'
p2349
I1
sS'masterpeice'
p2350
I1
sS'speak'
p2351
I3
sS'petty'
p2352
I2
sS'Kerry'
p2353
I3
sS'Aragorn'
p2354
I1
sS'Pulp'
p2355
I1
sS'Hillary'
p2356
I1
sS'dozens'
p2357
I2
sS'Latifah'
p2358
I1
sS'cutouts'
p2359
I1
sS'families'
p2360
I4
sS'excite'
p2361
I1
sS'fest'
p2362
I1
sS'Night'
p2363
I7
sS'Rufus'
p2364
I1
sS'has'
p2365
I94
sS'BLAIR'
p2366
I1
sS'air'
p2367
I1
sS'ehhhhh'
p2368
I1
sS'depictions'
p2369
I1
sS'ain'
p2370
I1
sS'micheal'
p2371
I1
sS'aid'
p2372
I1
sS'voice'
p2373
I4
sS'tellers'
p2374
I1
sS'mistake'
p2375
I6
sS'stink'
p2376
I1
sS'crowning'
p2377
I1
sS'dumped'
p2378
I1
sS'REALITY'
p2379
I1
sS'dizzy'
p2380
I3
sS'uplift'
p2381
I1
sS'confirmed'
p2382
I2
sS'blockbuster'
p2383
I1
sS'predictibal'
p2384
I1
sS'perform'
p2385
I2
sS'apparently'
p2386
I7
sS'Stop'
p2387
I2
sS'Revenge'
p2388
I1
sS'avoids'
p2389
I1
sS'plates'
p2390
I1
sS'convictions'
p2391
I1
sS'blames'
p2392
I1
sS'evil'
p2393
I11
sS'hand'
p2394
I6
sS'liberties'
p2395
I1
sS'movie-goers'
p2396
I1
sS'palpable'
p2397
I1
sS'blamed'
p2398
I1
sS'kept'
p2399
I11
sS'1979'
p2400
I1
sS'1977'
p2401
I2
sS'1600'
p2402
I1
sS'humble'
p2403
I1
sS'thr'
p2404
I2
sS'1970'
p2405
I1
sS'campy'
p2406
I4
sS'contact'
p2407
I1
sS'the'
p2408
I2446
sS'musical'
p2409
I10
sS'Pete'
p2410
I2
sS'reposo'
p2411
I1
sS'FATE'
p2412
I1
sS'gods'
p2413
I1
sS'repose'
p2414
I1
sS'gravity'
p2415
I1
sS'thanks'
p2416
I6
sS'victim'
p2417
I2
sS'Spike'
p2418
I2
sS'Hanks'
p2419
I5
sS'Menace'
p2420
I4
sS'CLASSIC'
p2421
I1
sS'similarities'
p2422
I1
sS'Hundreds'
p2423
I1
sS'spread'
p2424
I3
sS'board'
p2425
I4
sS'favor--STAY'
p2426
I1
sS'sited'
p2427
I1
sS'zillion'
p2428
I1
sS'borefest'
p2429
I2
sS'mocked'
p2430
I1
sS'boxed'
p2431
I1
sS'progressed'
p2432
I1
sS'Morning'
p2433
I1
sS'arab'
p2434
I1
sS'Gerard'
p2435
I1
sS'progresses'
p2436
I1
sS'Wing'
p2437
I1
sS'Wind'
p2438
I1
sS'cooler'
p2439
I1
sS'unfortunatly'
p2440
I1
sS'night'
p2441
I12
sS'nude'
p2442
I2
sS'Terribley'
p2443
I1
sS'Envy'
p2444
I1
sS'lashes'
p2445
I2
sS'born'
p2446
I2
sS'RIDICULOUS'
p2447
I1
sS'neva'
p2448
I1
sS'Tina'
p2449
I1
sS'bore'
p2450
I5
sS'confusing'
p2451
I7
sS'humor'
p2452
I4
sS'Dogvillians'
p2453
I3
sS'TERRIBLE'
p2454
I4
sS'/'
p2455
I48
sS'Leo'
p2456
I7
sS'Tim'
p2457
I5
sS'filming'
p2458
I4
sS'indoctrination'
p2459
I1
sS'Let'
p2460
I9
sS'Judea'
p2461
I1
sS'beating'
p2462
I1
sS'School'
p2463
I2
sS'marketing'
p2464
I1
sS'prologue'
p2465
I1
sS'plz'
p2466
I1
sS'lips'
p2467
I1
sS'post'
p2468
I1
sS'sensationalist'
p2469
I1
sS'Eileen'
p2470
I1
sS'diner'
p2471
I1
sS'theirs'
p2472
I1
sS'months'
p2473
I1
sS'Mako'
p2474
I1
sS'Tattoo'
p2475
I1
sS'sucked-its'
p2476
I1
sS'wasting'
p2477
I7
sS'pays'
p2478
I1
sS'prisoners'
p2479
I1
sS'bound'
p2480
I1
sS'ditto'
p2481
I1
sS'wan'
p2482
I1
sS'mutates'
p2483
I1
sS'overblown'
p2484
I1
sS'fight'
p2485
I10
sS'Existentialist'
p2486
I1
sS'clinical'
p2487
I1
sS'way'
p2488
I77
sS'quirky'
p2489
I1
sS'was'
p2490
I930
sS'war'
p2491
I7
sS'Iraqies'
p2492
I1
sS'lowest'
p2493
I1
sS'becoming'
p2494
I1
sS'morphus'
p2495
I1
sS'Funniest'
p2496
I1
sS'astonished'
p2497
I1
sS'true'
p2498
I24
sS'Left'
p2499
I1
sS'reset'
p2500
I1
sS'absent'
p2501
I1
sS'Torch'
p2502
I2
sS'maximum'
p2503
I1
sS'Morpheus'
p2504
I1
sS'apostles'
p2505
I1
sS'Odo'
p2506
I1
sS'emotional'
p2507
I2
sS'Poorly'
p2508
I2
sS'stranded'
p2509
I1
sS'flair--not'
p2510
I1
sS'scandalous'
p2511
I1
sS'nudity'
p2512
I11
sS'abstract'
p2513
I2
sS'opportunistic'
p2514
I1
sS'evidence'
p2515
I2
sS'overwhelmingly'
p2516
I1
sS'Hector'
p2517
I3
sS'lumped'
p2518
I1
sS'airplane'
p2519
I2
sS'physical'
p2520
I1
sS'dying'
p2521
I5
sS'stake'
p2522
I1
sS'topped'
p2523
I1
sS'reality'
p2524
I9
sS'interested'
p2525
I3
sS'Ignorant'
p2526
I1
sS'holding'
p2527
I3
sS'test'
p2528
I1
sS'frolic'
p2529
I1
sS'minldess'
p2530
I2
sS'SHOT'
p2531
I1
sS'brothers'
p2532
I3
sS'SHOW'
p2533
I1
sS'Later'
p2534
I2
sS'convincing'
p2535
I5
sS'reflexes'
p2536
I1
sS'cheated'
p2537
I3
sS'pefect'
p2538
I1
sS'domination'
p2539
I1
sS'together'
p2540
I15
sS'Saturday'
p2541
I1
sS'cohesion'
p2542
I1
sS'embarassment'
p2543
I1
sS'paced'
p2544
I1
sS'stick'
p2545
I11
sS'concept'
p2546
I11
sS'dance'
p2547
I6
sS'global'
p2548
I2
sS'-----Todd'
p2549
I1
sS'battle'
p2550
I6
sS'Charlie'
p2551
I1
sS'sucksbigmonkeynuts'
p2552
I1
sS'helicopter'
p2553
I1
sS'certainly'
p2554
I5
sS'absolutly'
p2555
I1
sS'flash'
p2556
I2
sS'Burt'
p2557
I1
sS'compensate'
p2558
I1
sS'terror'
p2559
I7
sS'Unrealistic'
p2560
I1
sS'Gentile'
p2561
I1
sS'seemingly'
p2562
I1
sS'Joker'
p2563
I1
sS'Elaine'
p2564
I3
sS'Crucifix'
p2565
I1
sS'airing'
p2566
I1
sS'Jersey'
p2567
I1
sS'Cubans'
p2568
I3
sS'cheerleaders'
p2569
I2
sS'Just'
p2570
I25
sS'presented'
p2571
I1
sS'turns'
p2572
I6
sS'gun'
p2573
I5
sS'gum'
p2574
I1
sS'WILL'
p2575
I1
sS'p'
p2576
I2
sS'soooo'
p2577
I5
sS'gut'
p2578
I2
sS'guy'
p2579
I35
sS'George'
p2580
I9
sS'upper'
p2581
I1
sS'regret'
p2582
I2
sS'repetitive'
p2583
I1
sS'discover'
p2584
I3
sS'cost'
p2585
I3
sS'Orange'
p2586
I4
sS'Rice'
p2587
I1
sS'rapist'
p2588
I1
sS'curse'
p2589
I1
sS'appear'
p2590
I3
sS'Exorcist"'
p2591
I1
sS'uniform'
p2592
I2
sS'Independence'
p2593
I4
sS'Imagine'
p2594
I1
sS'appeal'
p2595
I3
sS'gawd'
p2596
I1
sS'explosion'
p2597
I1
sS'Brilliant'
p2598
I1
sS'Berry'
p2599
I2
sS'English'
p2600
I1
sS'suckers'
p2601
I1
sS'teacher'
p2602
I2
sS'change'
p2603
I4
sS'WORLDS'
p2604
I1
sS'Gangs'
p2605
I2
sS'Dead'
p2606
I9
sS'trial'
p2607
I1
sS'usually'
p2608
I5
sS'Hellraiser'
p2609
I2
sS'weakminded'
p2610
I1
sS'regardless'
p2611
I2
sS'Horrid'
p2612
I1
sS'extra'
p2613
I1
sS'Angry'
p2614
I1
sS'marked'
p2615
I2
sS'genuinly'
p2616
I1
sS'embarrassing'
p2617
I1
sS'rarely'
p2618
I1
sS'BLOOOOOOODD'
p2619
I1
sS'prove'
p2620
I1
sS'deicide'
p2621
I1
sS'masturbating'
p2622
I1
sS'live'
p2623
I12
sS'Fell'
p2624
I1
sS'BSB'
p2625
I1
sS'horrorshow'
p2626
I1
sS'F'
p2627
I4
sS'club'
p2628
I1
sS'Pitt'
p2629
I4
sS'clue'
p2630
I2
sS'riding'
p2631
I1
sS'organizations'
p2632
I1
sS'graphic'
p2633
I2
sS'car'
p2634
I8
sS'trollops'
p2635
I1
sS'cat'
p2636
I1
sS'Down'
p2637
I1
sS'Lies'
p2638
I1
sS'can'
p2639
I178
sS'Throughout'
p2640
I2
sS'Dyson'
p2641
I1
sS'stimulating'
p2642
I2
sS'heart'
p2643
I6
sS'CELLULOID'
p2644
I1
sS'Contains'
p2645
I1
sS'topic'
p2646
I1
sS'heard'
p2647
I20
sS'clothing'
p2648
I1
sS'occur'
p2649
I1
sS'magazine'
p2650
I1
sS'nihilism'
p2651
I1
sS'write'
p2652
I5
sS'Wanna-Bee'
p2653
I1
sS'recenty'
p2654
I1
sS'intellectually'
p2655
I2
sS'economy'
p2656
I1
sS'armies'
p2657
I1
sS'product'
p2658
I6
sS'therby'
p2659
I1
sS'southern'
p2660
I1
sS'disgusted'
p2661
I1
sS'produce'
p2662
I1
sS'heroes'
p2663
I3
sS'remember'
p2664
I14
sS'whenever'
p2665
I2
sS'offend'
p2666
I1
sS'typical'
p2667
I8
sS'serving'
p2668
I1
sS'Painfully'
p2669
I2
sS'indeed'
p2670
I1
sS'Jar'
p2671
I4
sS'Use'
p2672
I1
sS'brain'
p2673
I9
sS'cold'
p2674
I6
sS'still'
p2675
I44
sS'Posner'
p2676
I2
sS'window'
p2677
I1
sS'dreadfully'
p2678
I1
sS'RC'
p2679
I2
sS'Wait'
p2680
I2
sS'AVOID'
p2681
I1
sS'constrants'
p2682
I1
sS'introduce'
p2683
I1
sS'B-horror'
p2684
I1
sS'tails'
p2685
I1
sS'1950'
p2686
I3
sS'sado-slasher'
p2687
I1
sS'half'
p2688
I20
sS'not'
p2689
I330
sS'now'
p2690
I39
sS'discuss'
p2691
I1
sS'nor'
p2692
I6
sS'wont'
p2693
I2
sS'honker'
p2694
I1
sS'james'
p2695
I1
sS'Redford'
p2696
I2
sS'intrigued'
p2697
I1
sS'Mile'
p2698
I1
sS'entirely'
p2699
I6
sS'em'
p2700
I4
sS'sugary'
p2701
I1
sS'en'
p2702
I1
sS'ei'
p2703
I1
sS'eh'
p2704
I1
sS'mixed-up'
p2705
I1
sS'eg'
p2706
I1
sS'directing'
p2707
I8
sS'yeah'
p2708
I1
sS'goose'
p2709
I1
sS'year'
p2710
I26
sS'Expected'
p2711
I1
sS'happen'
p2712
I12
sS'avoided'
p2713
I1
sS'album'
p2714
I2
sS'shown'
p2715
I5
sS'accomplish'
p2716
I1
sS'opened'
p2717
I1
sS'space'
p2718
I10
sS'looking'
p2719
I16
sS'opener'
p2720
I1
sS'makeing'
p2721
I3
sS'rational'
p2722
I1
sS'shows'
p2723
I5
sS'alllll'
p2724
I1
sS'film-makers'
p2725
I1
sS'punks'
p2726
I1
sS'DISCO'
p2727
I1
sS'unwanted'
p2728
I1
sS'Afflick'
p2729
I1
sS'marine'
p2730
I1
sS'care'
p2731
I24
sS'couldn'
p2732
I38
sS'19th-century'
p2733
I1
sS'honest'
p2734
I4
sS'Erin'
p2735
I1
sS'scarry'
p2736
I1
sS'GOBBLE'
p2737
I2
sS'ANGUISH'
p2738
I1
sS'Elvis'
p2739
I3
sS'Even'
p2740
I19
sS'halle'
p2741
I1
sS'There'
p2742
I64
sS'wimped'
p2743
I1
sS'yourself'
p2744
I11
sS'Till'
p2745
I2
sS'pornographer'
p2746
I1
sS'Rates'
p2747
I1
sS'Pure'
p2748
I4
sS'costner'
p2749
I1
sS'impossible'
p2750
I3
sS'message'
p2751
I9
sS'size'
p2752
I1
sS'sheer'
p2753
I2
sS'checked'
p2754
I1
sS'silent'
p2755
I2
sS'Rightfully'
p2756
I1
sS'caught'
p2757
I2
sS'remotely'
p2758
I2
sS'becocked'
p2759
I1
sS'tragic'
p2760
I1
sS'puddle'
p2761
I1
sS'friend'
p2762
I11
sS'REVOLUTION'
p2763
I1
sS'Omen'
p2764
I2
sS'Britney'
p2765
I3
sS'that'
p2766
I690
sS'resulted'
p2767
I1
sS'Everyone'
p2768
I7
sS'than'
p2769
I102
sS'professionals'
p2770
I1
sS'television'
p2771
I4
sS'dinks'
p2772
I1
sS'gobs'
p2773
I1
sS'apples'
p2774
I1
sS'MAKE'
p2775
I2
sS'lunches'
p2776
I1
sS'slap'
p2777
I1
sS'crossover'
p2778
I1
sS'13th'
p2779
I7
sS'OUTSIDE'
p2780
I1
sS'Kidman'
p2781
I13
sS'plotlines'
p2782
I1
sS'anger'
p2783
I1
sS'Trash'
p2784
I2
sS'Naples'
p2785
I1
sS'Calf'
p2786
I1
sS'offering'
p2787
I1
sS'Intellectually'
p2788
I1
sS'Okinawa'
p2789
I1
sS'online'
p2790
I1
sS'similiar'
p2791
I1
sS'bitching'
p2792
I1
sS'begin'
p2793
I4
sS'prick'
p2794
I1
sS'Unlike'
p2795
I3
sS'price'
p2796
I1
sS'disturbimg'
p2797
I1
sS'banks'
p2798
I1
sS'overemotes'
p2799
I1
sS']'
p2800
I5
sS'forever'
p2801
I4
sS'jurassic'
p2802
I1
sS'egg'
p2803
I2
sS'implications'
p2804
I1
sS'Armegeddon'
p2805
I2
sS'Vader'
p2806
I4
sS'slaves'
p2807
I4
sS'professional'
p2808
I1
sS'typically'
p2809
I3
sS'terible'
p2810
I1
sS'rambling'
p2811
I1
sS'Character'
p2812
I1
sS'tearjerker'
p2813
I1
sS'fifty'
p2814
I1
sS'Wes'
p2815
I3
sS'Incredibly'
p2816
I1
sS'Roll'
p2817
I1
sS'cheeseburgers'
p2818
I1
sS'realizing'
p2819
I1
sS'aint'
p2820
I2
sS'Woman'
p2821
I2
sS'Worse'
p2822
I2
sS'Jeepers'
p2823
I2
sS'only'
p2824
I155
sS'Worst'
p2825
I6
sS'developed'
p2826
I4
sS'anencephaly'
p2827
I1
sS'shrill'
p2828
I1
sS'Motionless'
p2829
I1
sS'optimism'
p2830
I3
sS'mouthed'
p2831
I1
sS'truly'
p2832
I12
sS'loath'
p2833
I1
sS'cannot'
p2834
I19
sS'Barrymore'
p2835
I1
sS'leather'
p2836
I1
sS'ambling'
p2837
I1
sS'losers'
p2838
I3
sS'Allen'
p2839
I1
sS'Screenit'
p2840
I1
sS'husband'
p2841
I12
sS'physically'
p2842
I2
sS'namely'
p2843
I1
sS'asleep'
p2844
I35
sS'flatly'
p2845
I1
sS'hell'
p2846
I29
sS'inconistant'
p2847
I1
sS'Bombadil'
p2848
I1
sS'devil-angel'
p2849
I1
sS'3'
p2850
I25
sS'Tappy'
p2851
I2
sS'between'
p2852
I15
sS'justified'
p2853
I1
sS'notice'
p2854
I2
sS'antics'
p2855
I1
sS'blame'
p2856
I2
sS'Were'
p2857
I2
sS'comeback'
p2858
I1
sS'daddy'
p2859
I1
sS'talented'
p2860
I6
sS'resides'
p2861
I1
sS'Give'
p2862
I2
sS'THINKING'
p2863
I1
sS'Primary'
p2864
I1
sS'comes'
p2865
I10
sS'Death'
p2866
I2
sS'COW'
p2867
I1
sS'Pictures'
p2868
I1
sS'ILL'
p2869
I1
sS'exploit'
p2870
I1
sS'disgrace'
p2871
I2
sS'brats'
p2872
I1
sS'cares'
p2873
I6
sS'informed'
p2874
I1
sS'cared'
p2875
I5
sS'tie-dyed'
p2876
I1
sS'Dentist'
p2877
I1
sS'dictator'
p2878
I2
sS'leadership'
p2879
I1
sS'Rate-It'
p2880
I1
sS'COCK'
p2881
I1
sS'"Oh'
p2882
I1
sS'rubs'
p2883
I1
sS'postpubescent'
p2884
I1
sS'shockingly-inappropirate'
p2885
I1
sS'developing'
p2886
I1
sS'these'
p2887
I42
sS'wealthiest'
p2888
I1
sS'trick'
p2889
I3
sS'Battelfield'
p2890
I1
sS'TYPO'
p2891
I1
sS'coolest'
p2892
I2
sS'GNR'
p2893
I1
sS'incomprehsible'
p2894
I1
sS'Dick'
p2895
I1
sS'return'
p2896
I3
sS'mediocre'
p2897
I4
sS'develop'
p2898
I1
sS'Complete'
p2899
I3
sS'media'
p2900
I3
sS'corporations'
p2901
I1
sS'food'
p2902
I5
sS'Witch'
p2903
I12
sS'extravaganza'
p2904
I1
sS'finish'
p2905
I3
sS'sleazest'
p2906
I1
sS'non-sense'
p2907
I1
sS'tradition'
p2908
I2
sS'mentally'
p2909
I2
sS'theater'
p2910
I14
sS'charges'
p2911
I1
sS'containmates'
p2912
I1
sS'breeze'
p2913
I1
sS'moaning'
p2914
I1
sS'Nazi'
p2915
I1
sS'Service'
p2916
I1
sS'armour'
p2917
I1
sS'BACK'
p2918
I2
sS'valuable'
p2919
I3
sS'shouts'
p2920
I1
sS'chick-flickism'
p2921
I1
sS'wrecks'
p2922
I1
sS'touch'
p2923
I3
sS'death'
p2924
I17
sS'Would'
p2925
I9
sS'Possibly'
p2926
I1
sS'thinking'
p2927
I26
sS'senseless'
p2928
I7
sS'schmuks'
p2929
I1
sS'watchable'
p2930
I3
sS'treatment'
p2931
I2
sS'door'
p2932
I1
sS'j-Lo'
p2933
I1
sS'real'
p2934
I37
sS'propped'
p2935
I1
sS'stunk'
p2936
I3
sS'RateItAll'
p2937
I2
sS'read'
p2938
I22
sS'stung'
p2939
I1
sS'digital'
p2940
I1
sS'Guilty'
p2941
I1
sS'gonna'
p2942
I4
sS'early'
p2943
I5
sS'earnest'
p2944
I1
sS'listening'
p2945
I2
sS'symbolism'
p2946
I1
sS'using'
p2947
I10
sS'execution'
p2948
I1
sS'lady'
p2949
I3
sS'ruled'
p2950
I2
sS'fortune'
p2951
I3
sS'Show'
p2952
I3
sS'postcard'
p2953
I1
sS'miracle'
p2954
I1
sS'SCARRY'
p2955
I3
sS't'
p2956
I509
sS'fully'
p2957
I2
sS'Before'
p2958
I4
sS'exposed'
p2959
I1
sS'pointlessly'
p2960
I1
sS'hacks'
p2961
I1
sS'exposes'
p2962
I1
sS'Alfred'
p2963
I1
sS'Mars'
p2964
I2
sS'Mary'
p2965
I5
sS'passions'
p2966
I1
sS'perverse'
p2967
I1
sS'slaughtering'
p2968
I1
sS'Quaid'
p2969
I1
sS'manhatten'
p2970
I1
sS'gutted'
p2971
I1
sS'conservative'
p2972
I1
sS'ethos'
p2973
I1
sS'felt'
p2974
I17
sS'assembly'
p2975
I1
sS'business'
p2976
I4
sS'sixth'
p2977
I1
sS'equivalent'
p2978
I1
sS'credits'
p2979
I5
sS'starship'
p2980
I2
sS'vilain'
p2981
I1
sS'sloth-like'
p2982
I1
sS'exciting'
p2983
I7
sS'Leonardo'
p2984
I2
sS'throw'
p2985
I4
sS'REFUGE'
p2986
I1
sS'comparison'
p2987
I4
sS'central'
p2988
I1
sS'Eastwood'
p2989
I2
sS'wolf'
p2990
I1
sS'intent'
p2991
I1
sS'deranged'
p2992
I2
sS'bitty'
p2993
I1
sS'Story'
p2994
I5
sS'inclusion'
p2995
I1
sS'Memories'
p2996
I1
sS'Add'
p2997
I3
sS'involvement'
p2998
I1
sS'Storm'
p2999
I1
sS'nowadays'
p3000
I1
sS'your'
p3001
I79
sS'intervention'
p3002
I1
sS'log'
p3003
I1
sS'area'
p3004
I1
sS'aren'
p3005
I4
sS'assumed'
p3006
I2
sS'lol'
p3007
I1
sS'start'
p3008
I11
sS'low'
p3009
I9
sS'stars'
p3010
I14
sS'pre-teen'
p3011
I1
sS'drains'
p3012
I1
sS'J'
p3013
I4
sS'manipulative'
p3014
I2
sS'recoil'
p3015
I1
sS'McGregor'
p3016
I1
sS'trying'
p3017
I20
sS'Original'
p3018
I1
sS'allright'
p3019
I1
sS'Ummmmm'
p3020
I1
sS'hire'
p3021
I2
sS'fraud'
p3022
I2
sS'improved'
p3023
I1
sS'Century'
p3024
I1
sS'notibly'
p3025
I1
sS'bucket'
p3026
I1
sS'freddy'
p3027
I1
sS'assume'
p3028
I1
sS'one-star'
p3029
I2
sS'beliefs'
p3030
I1
sS'describe'
p3031
I5
sS'moved'
p3032
I1
sS'SEEN'
p3033
I1
sS'moves'
p3034
I2
sS'Judas'
p3035
I1
sS'Idol'
p3036
I1
sS'Jake'
p3037
I2
sS'Patter'
p3038
I1
sS'credibility'
p3039
I1
sS'Ponderous'
p3040
I1
sS'cinematography'
p3041
I3
sS'thought-provoking'
p3042
I1
sS'you'
p3043
I325
sS'Law'
p3044
I1
sS'poor'
p3045
I12
sS'Great'
p3046
I4
sS'treks'
p3047
I1
sS'60s'
p3048
I3
sS'Fields'
p3049
I1
sS'THERE'
p3050
I2
sS'drift'
p3051
I1
sS'carpenter'
p3052
I1
sS'computerized'
p3053
I1
sS'pooh'
p3054
I1
sS'pool'
p3055
I2
sS'HISTORY'
p3056
I1
sS'pedophyllic'
p3057
I1
sS'SALMA'
p3058
I1
sS'freshmoric'
p3059
I1
sS'tense'
p3060
I1
sS'strings'
p3061
I1
sS'Letting'
p3062
I1
sS'CLEVER'
p3063
I1
sS'Hobbit'
p3064
I1
sS'Rosco'
p3065
I1
sS'thoughtful'
p3066
I1
sS'Take'
p3067
I1
sS'messy'
p3068
I2
sS'religious'
p3069
I7
sS'dreadful'
p3070
I5
sS'Elly'
p3071
I2
sS'fountain'
p3072
I2
sS'Pilate'
p3073
I1
sS'patently'
p3074
I1
sS'very'
p3075
I97
sS'horror'
p3076
I100
sS'bombed'
p3077
I2
sS'arse'
p3078
I1
sS'minded'
p3079
I1
sS'decide'
p3080
I3
sS'maladjusted'
p3081
I1
sS'begot'
p3082
I1
sS'--'
p3083
I24
sS'Kruger'
p3084
I2
sS'crummiest'
p3085
I1
sS'anal'
p3086
I1
sS'-8'
p3087
I1
sS'ass'
p3088
I10
sS'GREAT'
p3089
I3
sS'None'
p3090
I2
sS'Grandmother'
p3091
I1
sS'Robe'
p3092
I1
sS'snippets'
p3093
I1
sS'conscience'
p3094
I1
sS'darkness'
p3095
I2
sS'witnessed'
p3096
I1
sS'zealots'
p3097
I1
sS'emotions'
p3098
I4
sS'apologized'
p3099
I1
sS'learned'
p3100
I3
sS'edited'
p3101
I1
sS'loose'
p3102
I1
sS'DRIVER'
p3103
I1
sS'excess'
p3104
I1
sS'strong'
p3105
I3
sS'b5644om'
p3106
I1
sS'SAID'
p3107
I1
sS'creeps'
p3108
I1
sS'Jews'
p3109
I2
sS'ahead'
p3110
I1
sS'inspired'
p3111
I1
sS'whine'
p3112
I2
sS'creepy'
p3113
I9
sS'over-hyped'
p3114
I2
sS'whiny'
p3115
I1
sS'amount'
p3116
I4
sS'advertising'
p3117
I1
sS'Joan'
p3118
I1
sS'family'
p3119
I6
sS'Anakin'
p3120
I2
sS'disgusting'
p3121
I11
sS'put'
p3122
I26
sS'fourth-rate'
p3123
I1
sS'aimed'
p3124
I1
sS'trained'
p3125
I1
sS'reallly'
p3126
I2
sS'story-'
p3127
I1
sS'flaws'
p3128
I3
sS'takes'
p3129
I11
sS'contains'
p3130
I2
sS'taken'
p3131
I6
sS'terminally'
p3132
I1
sS'storys'
p3133
I1
sS'bushes'
p3134
I1
sS'Piper'
p3135
I1
sS'Sr'
p3136
I1
sS'site'
p3137
I1
sS'excuse'
p3138
I7
sS'So'
p3139
I19
sS'pro-American'
p3140
I1
sS'Fairy'
p3141
I1
sS'atavistic'
p3142
I1
sS'Matix'
p3143
I1
sS'offended'
p3144
I3
sS'SH'
p3145
I2
sS'SO'
p3146
I8
sS'yemen'
p3147
I1
sS'history'
p3148
I20
sS'againest'
p3149
I1
sS'Mulholland'
p3150
I1
sS'18th-'
p3151
I1
sS'UNDERSTAND'
p3152
I1
sS'CAN'
p3153
I1
sS'ectoplasmic'
p3154
I1
sS'lacks'
p3155
I2
sS'firmly'
p3156
I2
sS'present--like'
p3157
I1
sS'ACTING'
p3158
I1
sS'stayed'
p3159
I3
sS'punked'
p3160
I1
sS'cloying'
p3161
I1
sS'fr'
p3162
I1
sS'tried'
p3163
I29
sS'rude'
p3164
I1
sS'Wouldn'
p3165
I1
sS'sneak'
p3166
I1
sS'tries'
p3167
I8
sS'Daisy'
p3168
I1
sS'gasp'
p3169
I1
sS'Puuuuleeeze'
p3170
I1
sS'nothinig'
p3171
I1
sS'a'
p3172
I1370
sS'contrived'
p3173
I4
sS'humbug'
p3174
I1
sS'Mexico'
p3175
I2
sS'somebodies'
p3176
I1
sS'reeks'
p3177
I1
sS'Deep'
p3178
I2
sS'genuflect'
p3179
I1
sS'Peron'
p3180
I1
sS'ego'
p3181
I2
sS'frightning'
p3182
I1
sS'dream'
p3183
I4
sS'Film'
p3184
I2
sS'help'
p3185
I7
sS'torturous'
p3186
I1
sS'MIC'
p3187
I1
sS'sooo'
p3188
I2
sS'soon'
p3189
I5
sS'held'
p3190
I2
sS'committee'
p3191
I1
sS'white--were'
p3192
I1
sS'horrifficly'
p3193
I1
sS'surprized'
p3194
I1
sS'actually'
p3195
I55
sS'relate'
p3196
I2
sS'rabble'
p3197
I2
sS'tumbling'
p3198
I1
sS'fool'
p3199
I8
sS'evening'
p3200
I1
sS'yo'
p3201
I1
sS'ya'
p3202
I1
sS'PG-13'
p3203
I1
sS'floating'
p3204
I1
sS'cupcake'
p3205
I1
sS'vomit'
p3206
I10
sS'foot'
p3207
I1
sS'desperately'
p3208
I1
sS'SFX'
p3209
I2
sS'occasions'
p3210
I1
sS'Aliens'
p3211
I2
sS'payed'
p3212
I1
sS'amoral'
p3213
I1
sS'stopped'
p3214
I2
sS'KILLL'
p3215
I1
sS'Liam'
p3216
I2
sS'trailer'
p3217
I3
sS'referred'
p3218
I1
sS'flashbacks'
p3219
I1
sS'End'
p3220
I2
sS'ooooohhhhh'
p3221
I1
sS'Puke'
p3222
I1
sS'wacky'
p3223
I1
sS'Jive'
p3224
I1
sS'beyond'
p3225
I10
sS'event'
p3226
I5
sS'dominates'
p3227
I1
sS'MATRIX'
p3228
I1
sS'basements'
p3229
I1
sS'crapy'
p3230
I1
sS'since'
p3231
I21
sS'douglas'
p3232
I1
sS'half-way'
p3233
I1
sS'Godawful'
p3234
I1
sS'safety'
p3235
I1
sS'7'
p3236
I9
sS'issue'
p3237
I5
sS'sympathized'
p3238
I1
sS'Town'
p3239
I1
sS'pun'
p3240
I2
sS'houses'
p3241
I1
sS'reason'
p3242
I29
sS'base'
p3243
I3
sS'dire'
p3244
I1
sS'ask'
p3245
I8
sS'Chauvinism'
p3246
I1
sS'heroic'
p3247
I1
sS'Fantastic'
p3248
I1
sS'bring'
p3249
I4
sS'Boston'
p3250
I1
sS'terrible'
p3251
I73
sS'terribly'
p3252
I10
sS'american'
p3253
I4
sS'expecting'
p3254
I4
sS'businessmen'
p3255
I2
sS'undergo'
p3256
I1
sS'IDEA'
p3257
I1
sS'non-Whites'
p3258
I1
sS'unexpected'
p3259
I1
sS'splattered'
p3260
I1
sS'horse'
p3261
I3
sS'Altman'
p3262
I1
sS'wonderful'
p3263
I7
sS'Delta'
p3264
I1
sS'hundred'
p3265
I2
sS'selling'
p3266
I1
sS'passed'
p3267
I1
sS'bowel'
p3268
I2
sS'boredom'
p3269
I1
sS'off'
p3270
I69
sS'Zellweger'
p3271
I1
sS'Spacey'
p3272
I3
sS'toward'
p3273
I3
sS'timmmmeee'
p3274
I1
sS'ROCKY'
p3275
I1
sS'wasnt'
p3276
I6
sS'God'
p3277
I20
sS'Peace'
p3278
I1
sS'Father'
p3279
I1
sS'juicy'
p3280
I1
sS'Douglas'
p3281
I1
sS'Penn'
p3282
I3
sS'blissful'
p3283
I1
sS'showcased'
p3284
I1
sS'lie'
p3285
I5
sS'speaking'
p3286
I2
sS'slow-going'
p3287
I1
sS'lil'
p3288
I1
sS'camouflage'
p3289
I1
sS'Roxie'
p3290
I1
sS'relieved'
p3291
I1
sS'useless'
p3292
I7
sS'Sandler'
p3293
I1
sS'With'
p3294
I12
sS'aired'
p3295
I1
sS'towards'
p3296
I5
sS'freddie'
p3297
I1
sS'eaten'
p3298
I1
sS'The'
p3299
I489
sS'creators'
p3300
I3
sS'performances'
p3301
I4
sS'clear'
p3302
I3
sS'popularity'
p3303
I2
sS'outhouse'
p3304
I1
sS'part-time'
p3305
I1
sS'clean'
p3306
I3
sS'latest'
p3307
I3
sS'filmed'
p3308
I5
sS'phenomenon'
p3309
I1
sS'6-year'
p3310
I1
sS'hyped'
p3311
I2
sS'capial'
p3312
I1
sS'communitites'
p3313
I1
sS'ABSOLUTE'
p3314
I1
sS'reminiscent'
p3315
I2
sS'northern'
p3316
I1
sS'justice'
p3317
I3
sS'less'
p3318
I16
sS'assertion'
p3319
I1
sS'French'
p3320
I1
sS'randy'
p3321
I1
sS'pretty'
p3322
I25
sS'circle'
p3323
I1
sS'ten-minute'
p3324
I1
sS'Grow'
p3325
I1
sS'Michelle'
p3326
I2
sS'dominant'
p3327
I1
sS'grocery'
p3328
I1
sS'trees'
p3329
I2
sS'Crystal'
p3330
I2
sS'While'
p3331
I7
sS'pretending'
p3332
I1
sS'basement'
p3333
I1
sS'during'
p3334
I14
sS'fluff'
p3335
I3
sS'nnnooooo'
p3336
I1
sS'freaky'
p3337
I2
sS'sacrifices'
p3338
I1
sS'gloves'
p3339
I2
sS'hype'
p3340
I15
sS'witht'
p3341
I1
sS'slavishly'
p3342
I1
sS'seventeen'
p3343
I1
sS'throwing'
p3344
I1
sS'unpublished'
p3345
I1
sS'Jekyl'
p3346
I1
sS'Roses'
p3347
I2
sS'descriptions'
p3348
I1
sS'Mama'
p3349
I1
sS'close'
p3350
I5
sS'comfort'
p3351
I1
sS'locals'
p3352
I1
sS'cheapshot'
p3353
I1
sS'SUCKING'
p3354
I1
sS'horrid'
p3355
I8
sS'wou'
p3356
I1
sS'pictures'
p3357
I2
sS'wow'
p3358
I2
sS'Blair'
p3359
I16
sS'Park'
p3360
I2
sS'Plz'
p3361
I2
sS'supstitions'
p3362
I1
sS'won'
p3363
I18
sS'Parr'
p3364
I2
sS'woe'
p3365
I1
sS'probably'
p3366
I12
sS'conditions'
p3367
I1
sS'pictured'
p3368
I1
sS'piss'
p3369
I1
sS'missing'
p3370
I3
sS'generous'
p3371
I2
sS'Mogwai'
p3372
I1
sS'genre'
p3373
I7
sS'work-'
p3374
I1
sS'both'
p3375
I10
sS'secrets'
p3376
I1
sS'phonies'
p3377
I2
sS'buzz'
p3378
I1
sS'liked'
p3379
I23
sS'headed'
p3380
I1
sS'Braveheart'
p3381
I2
sS'whatever'
p3382
I6
sS'storyline-'
p3383
I1
sS'unfolded'
p3384
I1
sS'likes'
p3385
I4
sS'Way'
p3386
I5
sS'Gangsta'
p3387
I1
sS'Was'
p3388
I4
sS'War'
p3389
I3
sS'primetime'
p3390
I1
sS'described'
p3391
I1
sS'"Sack'
p3392
I1
sS'celluloid'
p3393
I2
sS'continuos'
p3394
I1
sS'Most'
p3395
I11
sS'damn'
p3396
I5
sS'coarse'
p3397
I3
sS'mutiny'
p3398
I1
sS'desserve'
p3399
I1
sS'territory'
p3400
I1
sS'empty'
p3401
I3
sS'Women'
p3402
I1
sS'budgeted'
p3403
I1
sS'dialogue'
p3404
I14
sS'alongside'
p3405
I1
sS'partly'
p3406
I1
sS'liven'
p3407
I1
sS'wet'
p3408
I1
sS'else'
p3409
I20
sS'Corpses'
p3410
I1
sS'recalled'
p3411
I1
sS'compromised'
p3412
I1
sS'Pick'
p3413
I2
sS'playthings'
p3414
I1
sS'Kubrick'
p3415
I12
sS'Cute'
p3416
I1
sS'intriguing'
p3417
I2
sS'look'
p3418
I34
sS'pace'
p3419
I1
sS'Incest'
p3420
I1
sS'smart'
p3421
I1
sS'loop'
p3422
I1
sS'fans--he'
p3423
I1
sS'thrown-together'
p3424
I1
sS'smacked'
p3425
I1
sS'bludgeons'
p3426
I1
sS'Furthermore'
p3427
I2
sS'Racism'
p3428
I1
sS'reads'
p3429
I2
sS'terminator'
p3430
I2
sS'ready'
p3431
I5
sS'lacklustre'
p3432
I1
sS'windowdressing'
p3433
I1
sS'Unfortunately'
p3434
I6
sS'Eyes'
p3435
I3
sS'anymore'
p3436
I6
sS'FAR'
p3437
I3
sS'Luke'
p3438
I1
sS'religeons'
p3439
I1
sS'FAT'
p3440
I1
sS'Extraordinary'
p3441
I1
sS'grand'
p3442
I1
sS'sham'
p3443
I1
sS'used'
p3444
I11
sS'lawyers'
p3445
I1
sS'Rushmore'
p3446
I1
sS'blair'
p3447
I4
sS'Clive'
p3448
I2
sS'Movies'
p3449
I2
sS'000'
p3450
I4
sS'Jolie'
p3451
I3
sS'overated'
p3452
I3
sS'older'
p3453
I5
sS'grind'
p3454
I1
sS'clears'
p3455
I1
sS'Girl'
p3456
I2
sS'jerkiness'
p3457
I2
sS'grossly'
p3458
I2
sS'Living'
p3459
I4
sS'reviewed'
p3460
I1
sS'DON'
p3461
I6
sS'Zellwegger'
p3462
I1
sS'praying'
p3463
I1
sS'Tobey'
p3464
I1
sS'Casting'
p3465
I1
sS'$'
p3466
I20
sS'decayed'
p3467
I1
sS'gorme'
p3468
I1
sS'guaranteed'
p3469
I1
sS'Predictable'
p3470
I3
sS'soooooo'
p3471
I1
sS'remaining'
p3472
I2
sS'soliloquy'
p3473
I1
sS'lacking'
p3474
I4
sS'oversings'
p3475
I1
sS'uncorrupted'
p3476
I1
sS'showing'
p3477
I6
sS'Billy'
p3478
I2
sS'game'
p3479
I9
sS'culturally'
p3480
I1
sS'translucent'
p3481
I1
sS'vests'
p3482
I1
sS'holes'
p3483
I4
sS'dialouge'
p3484
I3
sS'dreck'
p3485
I6
sS'popular'
p3486
I1
sS'Fine'
p3487
I2
sS'adulterous'
p3488
I1
sS'Little'
p3489
I5
sS'dudettes'
p3490
I1
sS'Illogical'
p3491
I1
sS'Dancing'
p3492
I1
sS'hrs'
p3493
I1
sS'some'
p3494
I104
sS'CORPSES'
p3495
I1
sS'WIERD'
p3496
I1
sS'trendy'
p3497
I1
sS'EEEEWWWWW'
p3498
I1
sS'spouting'
p3499
I1
sS'AMC'
p3500
I1
sS'CHEAP'
p3501
I3
sS'providence'
p3502
I1
sS'Apollo'
p3503
I1
sS'everybody'
p3504
I1
sS'inconvenience'
p3505
I1
sS'eating'
p3506
I2
sS'flogging'
p3507
I2
sS'Bill'
p3508
I4
sS'step'
p3509
I3
sS'plots'
p3510
I1
sS'Vorhees'
p3511
I3
sS'rut'
p3512
I1
sS'faith'
p3513
I4
sS'Taylor'
p3514
I1
sS'wouldnt'
p3515
I3
sS'lamest'
p3516
I1
sS'Catherine'
p3517
I2
sS'Quake'
p3518
I1
sS'shiny'
p3519
I1
sS'seeing'
p3520
I27
sS'dude'
p3521
I8
sS'within'
p3522
I7
sS'nonsense'
p3523
I10
sS'exlploits'
p3524
I1
sS'Their'
p3525
I1
sS'A-list'
p3526
I1
sS'rolls'
p3527
I1
sS'Norman'
p3528
I2
sS'Cancun'
p3529
I1
sS'Portman'
p3530
I2
sS'SINGING'
p3531
I1
sS'himself'
p3532
I10
sS'inept'
p3533
I1
sS'properly'
p3534
I2
sS'alive'
p3535
I1
sS'russian'
p3536
I1
sS'amateurish'
p3537
I1
sS'reel'
p3538
I2
sS'dull'
p3539
I12
sS'grams'
p3540
I1
sS'Irish'
p3541
I1
sS'similar'
p3542
I1
sS'noone'
p3543
I1
sS'Brie'
p3544
I1
sS'adults'
p3545
I1
sS'EQUAL'
p3546
I1
sS'doesn'
p3547
I35
sS'To'
p3548
I14
sS'cotton'
p3549
I2
sS'TV'
p3550
I8
sS'A-'
p3551
I1
sS'TO'
p3552
I5
sS'hoopla'
p3553
I1
sS'Rikki'
p3554
I1
sS'department'
p3555
I1
sS'manhattan'
p3556
I5
sS'deplict'
p3557
I1
sS'T2'
p3558
I4
sS'T3'
p3559
I2
sS'T1'
p3560
I1
sS'twioce'
p3561
I1
sS'drag'
p3562
I4
sS'AT'
p3563
I3
sS'Documentary'
p3564
I1
sS'e'
p3565
I2
sS'Ah'
p3566
I1
sS'navy'
p3567
I1
sS'Am'
p3568
I2
sS'Al'
p3569
I2
sS'An'
p3570
I6
sS'As'
p3571
I29
sS'At'
p3572
I5
sS'geophysics'
p3573
I1
sS'underrated'
p3574
I1
sS'berries'
p3575
I1
sS'Apparently'
p3576
I5
sS'Hayek'
p3577
I1
sS'Sela'
p3578
I2
sS'psyche'
p3579
I1
sS'go'
p3580
I57
sS'psycho'
p3581
I2
sS'Painful'
p3582
I1
sS'vacuous'
p3583
I1
sS'Award'
p3584
I1
sS'Eminem'
p3585
I2
sS'shack'
p3586
I1
sS'does'
p3587
I36
sS'Words'
p3588
I2
sS'Not'
p3589
I38
sS'Downright'
p3590
I1
sS'friendly'
p3591
I1
sS'murderous'
p3592
I2
sS'Gangsters'
p3593
I1
sS'telling'
p3594
I5
sS'yourselves'
p3595
I1
sS'believethese'
p3596
I1
sS'stiff'
p3597
I4
sS'button'
p3598
I1
sS'michael'
p3599
I3
sS'watered'
p3600
I1
sS'verdict'
p3601
I1
sS'innately'
p3602
I1
sS'ze'
p3603
I2
sS'waking'
p3604
I1
sS'jump'
p3605
I3
sS'noise'
p3606
I1
sS'booth'
p3607
I1
sS'picked'
p3608
I2
sS'pornography'
p3609
I2
sS'lip-synching'
p3610
I1
sS'brokered'
p3611
I1
sS'plays'
p3612
I7
sS'paintings'
p3613
I1
sS'wallet'
p3614
I1
sS'marketed'
p3615
I2
sS'vampire'
p3616
I3
sS'Boys'
p3617
I2
sS'rotten'
p3618
I2
sS'Involving'
p3619
I1
sS'rotted'
p3620
I1
sS';'
p3621
I31
sS'America'
p3622
I9
sS'catholic'
p3623
I2
sS'hatered'
p3624
I1
sS'focuses'
p3625
I2
sS'commercial'
p3626
I4
sS'Polanski'
p3627
I1
sS'believed'
p3628
I2
sS'PASSION'
p3629
I1
sS'Dogville'
p3630
I9
sS'Deplorable'
p3631
I1
sS'kidnapped'
p3632
I1
sS'Ahh'
p3633
I1
sS'Back'
p3634
I2
sS'paranoid'
p3635
I2
sS'Arabia'
p3636
I2
sS'Utter'
p3637
I1
sS'Wonder'
p3638
I1
sS'Legends'
p3639
I1
sS'win'
p3640
I6
sS'Kirk'
p3641
I1
sS'wit'
p3642
I3
sS'stupider'
p3643
I1
sS'striptease'
p3644
I1
sS'singing'
p3645
I10
sS'interesed'
p3646
I1
sS'HIMSELF'
p3647
I1
sS'crap'
p3648
I65
sS'GARBAGE'
p3649
I1
sS'carzy'
p3650
I1
sS'camera'
p3651
I19
sS'subsidized'
p3652
I1
sS'vehicle'
p3653
I1
sS'historically'
p3654
I1
sS'prostitute-worn'
p3655
I1
sS'biblical'
p3656
I1
sS'started'
p3657
I15
sS'becomes'
p3658
I1
sS'missile'
p3659
I1
sS'appointed'
p3660
I1
sS'LIKE'
p3661
I1
sS'salad'
p3662
I2
sS'Feardotcom'
p3663
I1
sS'ride'
p3664
I1
sS'Generation'
p3665
I2
sS'crossed'
p3666
I1
sS'meet'
p3667
I3
sS'drops'
p3668
I1
sS'averages'
p3669
I1
sS'control'
p3670
I6
sS'TOP'
p3671
I1
sS'halloween'
p3672
I13
sS'scripted'
p3673
I1
sS'TOO'
p3674
I4
sS'OFF'
p3675
I1
sS'Lovely'
p3676
I1
sS'Completly'
p3677
I1
sS'nary'
p3678
I1
sS'Godfather'
p3679
I1
sS'Scooby'
p3680
I1
sS'Gore'
p3681
I3
sS'immoral'
p3682
I1
sS'Lame-o-rama'
p3683
I1
sS'Shrew'
p3684
I1
sS'role-playing'
p3685
I1
sS'British'
p3686
I5
sS'fart'
p3687
I1
sS'Roman'
p3688
I5
sS'debasement'
p3689
I1
sS'Shrek'
p3690
I1
sS'introduced'
p3691
I2
sS'famous'
p3692
I1
sS'feels'
p3693
I1
sS'SAME'
p3694
I1
sS'alienation'
p3695
I1
sS'womanizer'
p3696
I1
sS'Wilson'
p3697
I1
sS'Smith'
p3698
I6
sS'rebellious'
p3699
I1
sS'including'
p3700
I4
sS'cruise'
p3701
I2
sS'mentioned'
p3702
I3
sS'WITH'
p3703
I2
sS'Final'
p3704
I2
sS'outer'
p3705
I3
sS'affleck'
p3706
I1
sS'masses'
p3707
I1
sS'CLASSICS'
p3708
I2
sS'sword'
p3709
I1
sS'Loses'
p3710
I1
sS'hands'
p3711
I3
sS'front'
p3712
I4
sS'documented'
p3713
I1
sS'magnitude'
p3714
I1
sS'mode'
p3715
I3
sS'bekong'
p3716
I1
sS'Reservior'
p3717
I1
sS'flop-sweat'
p3718
I1
sS'special'
p3719
I28
sS'entertainment'
p3720
I6
sS'armor'
p3721
I1
sS'cop-out'
p3722
I1
sS'Juliette'
p3723
I1
sS'critics'
p3724
I3
sS'X-men'
p3725
I1
sS'wich'
p3726
I1
sS'"It'
p3727
I1
sS'cause'
p3728
I4
sS'trashy'
p3729
I2
sS'70s'
p3730
I3
sS'completely'
p3731
I27
sS'conservatives'
p3732
I2
sS'cemistry'
p3733
I1
sS'Rodgers'
p3734
I1
sS'1983'
p3735
I1
sS'lone'
p3736
I1
sS'route'
p3737
I1
sS'keep'
p3738
I10
sS'projectile'
p3739
I1
sS'wonks'
p3740
I1
sS'mankind'
p3741
I2
sS'Fett'
p3742
I1
sS'Lame'
p3743
I8
sS'powerful'
p3744
I1
sS'stultifying'
p3745
I2
sS'bitch'
p3746
I2
sS'quality'
p3747
I11
sS'Lamest'
p3748
I1
sS'relations'
p3749
I1
sS'attack'
p3750
I2
sS'wrapped'
p3751
I1
sS'perfectly'
p3752
I3
sS'final'
p3753
I4
sS'Bing'
p3754
I2
sS'exactly'
p3755
I8
sS'Bride'
p3756
I2
sS'cryptically'
p3757
I1
sS'herself'
p3758
I3
sS'Channing'
p3759
I1
sS'Thankfully'
p3760
I2
sS'beg'
p3761
I1
sS'bed'
p3762
I3
sS'cartoonish'
p3763
I1
sS'ber'
p3764
I1
sS'Shire'
p3765
I3
sS'yawner'
p3766
I1
sS'bet'
p3767
I1
sS'undoubtly'
p3768
I1
sS'bordem'
p3769
I1
sS'villains'
p3770
I1
sS'Richard'
p3771
I8
sS'horrors'
p3772
I2
sS'Other'
p3773
I5
sS'disapointment'
p3774
I1
sS'need'
p3775
I21
sS'tale'
p3776
I8
sS'bastard'
p3777
I2
sS'unadulterated'
p3778
I1
sS'Batman'
p3779
I2
sS'able'
p3780
I8
sS'instance'
p3781
I2
sS're-made'
p3782
I2
sS'Graphics'
p3783
I1
sS'truck'
p3784
I1
sS'kemaya'
p3785
I1
sS'HAHA'
p3786
I1
sS'intentions'
p3787
I1
sS'connected'
p3788
I1
sS'cellphone'
p3789
I1
sS'Scooby-Doo'
p3790
I1
sS'upset'
p3791
I2
sS'NOTHING'
p3792
I3
sS'affair'
p3793
I1
sS'Matt'
p3794
I2
sS'Ian'
p3795
I1
sS'kiddie'
p3796
I2
sS'FATHER'
p3797
I1
sS'anyway'
p3798
I6
sS'Randy'
p3799
I6
sS'soldiers'
p3800
I8
sS'Wrath'
p3801
I1
sS'IKWYDLS'
p3802
I1
sS'based'
p3803
I17
sS'hadn'
p3804
I1
sS'('
p3805
I161
sS'winner'
p3806
I1
sS'hopeful'
p3807
I1
sS'bases'
p3808
I1
sS'suckered'
p3809
I2
sS'fuel'
p3810
I1
sS'rocking'
p3811
I1
sS'overall'
p3812
I5
sS'Jackie'
p3813
I1
sS'120'
p3814
I1
sS'joint'
p3815
I1
sS'legitimate'
p3816
I2
sS'joins'
p3817
I1
sS'tobacco'
p3818
I1
sS'course'
p3819
I18
sS'shy'
p3820
I2
sS'berserk'
p3821
I1
sS'she'
p3822
I68
sS'contain'
p3823
I1
sS'flogged'
p3824
I1
sS'widow'
p3825
I3
sS'Driving'
p3826
I1
sS'Diane'
p3827
I1
sS'shake'
p3828
I1
sS'humans'
p3829
I2
sS'canine'
p3830
I1
sS'immigrant'
p3831
I1
sS'spinoff'
p3832
I1
sS'computer'
p3833
I8
sS'desperate'
p3834
I2
sS'overtones'
p3835
I1
sS'humane'
p3836
I1
sS'REALLY'
p3837
I3
sS'Good'
p3838
I12
sS'pointer'
p3839
I1
sS'nightmare'
p3840
I5
sS'horribly'
p3841
I2
sS'writter'
p3842
I1
sS'tend'
p3843
I2
sS'FANS'
p3844
I1
sS'tosses'
p3845
I1
sS'afauwl'
p3846
I1
sS'masking'
p3847
I1
sS'flicks'
p3848
I4
sS'outsiders'
p3849
I1
sS'tent'
p3850
I3
sS'comparable'
p3851
I1
sS'neither'
p3852
I5
sS'sorely'
p3853
I1
sS'importance'
p3854
I2
sS'Exorcist'
p3855
I6
sS'actrees'
p3856
I1
sS'simple-minded'
p3857
I1
sS'approval'
p3858
I1
sS'precious'
p3859
I1
sS'Tolkiens'
p3860
I1
sS'Beals'
p3861
I1
sS'career'
p3862
I9
sS'Atually'
p3863
I1
sS'minds'
p3864
I2
sS'Plodding'
p3865
I1
sS'admit'
p3866
I6
sS'spooge'
p3867
I1
sS'CIA'
p3868
I1
sS'Fiction'
p3869
I2
sS'Los'
p3870
I1
sS'BOGUS'
p3871
I1
sS'Lot'
p3872
I1
sS'clubfooted'
p3873
I1
sS'Filled'
p3874
I3
sS'quit'
p3875
I2
sS'inhale'
p3876
I1
sS'addition'
p3877
I2
sS'cent'
p3878
I1
sS'anoying'
p3879
I1
sS'liberals'
p3880
I4
sS'slowly'
p3881
I1
sS'treat'
p3882
I1
sS'Colorado'
p3883
I1
sS'wtf'
p3884
I1
sS'senses'
p3885
I1
sS'league'
p3886
I1
sS'Pretend'
p3887
I1
sS'Dragon'
p3888
I1
sS'Cousin'
p3889
I1
sS'kicks'
p3890
I1
sS'smoking'
p3891
I1
sS'cuts'
p3892
I1
sS'shameless'
p3893
I1
sS'And'
p3894
I56
sS'novel'
p3895
I6
sS'decades'
p3896
I2
sS'harder'
p3897
I3
sS'Ani'
p3898
I1
sS'SHMACK'
p3899
I1
sS'Any'
p3900
I5
sS'Granted'
p3901
I2
sS'portentious'
p3902
I1
sS'Pretty'
p3903
I2
sS'bucks'
p3904
I6
sS'You'
p3905
I52
sS'capture'
p3906
I1
sS'-year-old'
p3907
I1
sS'began'
p3908
I2
sS'rubish'
p3909
I1
sS'Interview'
p3910
I1
sS'parts'
p3911
I15
sS'tties'
p3912
I1
sS'party'
p3913
I5
sS'SUVs'
p3914
I1
sS'http'
p3915
I2
sS'forgotten'
p3916
I1
sS'effect'
p3917
I4
sS'sarcastic'
p3918
I2
sS'Hallelujah'
p3919
I1
sS'frequently'
p3920
I1
sS'nation'
p3921
I1
sS'steals'
p3922
I1
sS'destruction'
p3923
I1
sS'reflection'
p3924
I1
sS'i'
p3925
I120
sS'nonetheless'
p3926
I1
sS'well'
p3927
I46
sS'ANY'
p3928
I4
sS'Fantasy'
p3929
I2
sS'Have'
p3930
I5
sS'LOTR'
p3931
I1
sS'deterrent'
p3932
I1
sS'BE'
p3933
I1
sS'enormously'
p3934
I1
sS'accurate'
p3935
I3
sS'mistaken'
p3936
I1
sS'dose'
p3937
I1
sS'sources'
p3938
I1
sS'Sunday'
p3939
I3
sS'BW'
p3940
I5
sS'distant'
p3941
I1
sS'virtual'
p3942
I1
sS'BS'
p3943
I1
sS'spells'
p3944
I1
sS'formulatic'
p3945
I1
sS'Be'
p3946
I2
sS'Scream'
p3947
I15
sS'trepped'
p3948
I1
sS'Despite'
p3949
I4
sS'By'
p3950
I4
sS'kick'
p3951
I4
sS'details'
p3952
I1
sS'pants'
p3953
I1
sS'bottoms'
p3954
I1
sS'prominent'
p3955
I1
sS'TNG'
p3956
I1
sS'loss'
p3957
I1
sS'necessary'
p3958
I2
sS'lost'
p3959
I14
sS'exploiting'
p3960
I1
sS'ring'
p3961
I1
sS'Sleepy'
p3962
I1
sS'candy'
p3963
I4
sS'Penelope'
p3964
I1
sS'sissy'
p3965
I2
sS'lose'
p3966
I2
sS'page'
p3967
I2
sS'lends'
p3968
I1
sS'warmed'
p3969
I1
sS'scripturally'
p3970
I1
sS'Avoid'
p3971
I7
sS'U2'
p3972
I1
sS'motive'
p3973
I1
sS'shes'
p3974
I1
sS'home'
p3975
I12
sS'liking'
p3976
I3
sS'moderates'
p3977
I1
sS'steaming'
p3978
I1
sS'However'
p3979
I10
sS'abandaned'
p3980
I1
sS'bullsh'
p3981
I1
sS'Bull'
p3982
I1
sS'boggles'
p3983
I1
sS'?'
p3984
I378
sS'euro-trash'
p3985
I1
sS'coated'
p3986
I1
sS'medieval'
p3987
I1
sS'turds'
p3988
I1
sS'whippdey'
p3989
I1
sS'Up'
p3990
I2
sS'poignant'
p3991
I1
sS'science'
p3992
I4
sS'Johnny'
p3993
I2
sS'freedom'
p3994
I4
sS'sinister'
p3995
I2
sS'UP'
p3996
I1
sS'US'
p3997
I5
sS'equally'
p3998
I4
sS'Hellboy'
p3999
I1
sS'Rober'
p4000
I1
sS'j-lo'
p4001
I1
sS'artists'
p4002
I1
sS'Dukes'
p4003
I2
sS'pointless'
p4004
I18
sS'CGI'
p4005
I5
sS'Yawn'
p4006
I2
sS'noticed'
p4007
I4
sS'delusions'
p4008
I1
sS'South'
p4009
I1
sS'California'
p4010
I1
sS'Finacee'
p4011
I1
sS'mucked'
p4012
I2
sS'terrrible'
p4013
I1
sS'blaming'
p4014
I1
sS'hi'
p4015
I1
sS'ear'
p4016
I3
sS'eat'
p4017
I5
sS'he'
p4018
I125
sS'Sentence'
p4019
I1
sS'vigor'
p4020
I2
sS'signed'
p4021
I1
sS'moive'
p4022
I1
sS'cruel'
p4023
I3
sS'stories'
p4024
I7
sS'acting'
p4025
I107
sS'piece'
p4026
I43
sS'penny'
p4027
I1
sS'twist'
p4028
I2
sS'beats'
p4029
I3
sS'lived'
p4030
I1
sS'Niro'
p4031
I1
sS'education'
p4032
I1
sS'AFLAC'
p4033
I1
sS'contest'
p4034
I1
sS'Never'
p4035
I4
sS'offensive'
p4036
I5
sS'Fridays'
p4037
I1
sS'crummy'
p4038
I1
sS'Besides'
p4039
I2
sS'Haawwww'
p4040
I1
sS'Succesful'
p4041
I1
sS'blunders'
p4042
I1
sS'star'
p4043
I32
sS'Like'
p4044
I14
sS'Schindler'
p4045
I1
sS'insults'
p4046
I1
sS'MOST'
p4047
I2
sS'pseudo-intellectual'
p4048
I1
sS'N'
p4049
I1
sS'friends'
p4050
I9
sS'Maudlin'
p4051
I1
sS'Spanish'
p4052
I1
sS'lives'
p4053
I11
sS'unimaginative'
p4054
I1
sS'Savage'
p4055
I1
sS'Retarded'
p4056
I1
sS'Senseless'
p4057
I2
sS'Theme'
p4058
I1
sS'perverted'
p4059
I3
sS'Sadly'
p4060
I2
sS'captain'
p4061
I2
sS'schmuck'
p4062
I1
sS'whose'
p4063
I4
sS'Rosalind'
p4064
I1
sS'presents'
p4065
I1
sS'christain'
p4066
I1
sS'sorry'
p4067
I26
sS'Geo-science'
p4068
I1
sS'Mystery'
p4069
I1
sS'saves'
p4070
I3
sS'rescue'
p4071
I2
sS'Patch'
p4072
I2
sS'smack'
p4073
I2
sS'Scrubs'
p4074
I1
sS'confederate'
p4075
I1
sS'affect'
p4076
I1
sS'low-budget'
p4077
I4
sS'low-key'
p4078
I1
sS'courageous'
p4079
I1
sS'Dont'
p4080
I1
sS'Thomas'
p4081
I2
sS'skills'
p4082
I5
sS'TELEPHONE'
p4083
I1
sS'correct'
p4084
I3
sS'deplorable'
p4085
I1
sS'graces'
p4086
I1
sS'clothes'
p4087
I2
sS'force'
p4088
I3
sS'japanese'
p4089
I3
sS'likely'
p4090
I2
sS'Version'
p4091
I1
sS'TRASH'
p4092
I1
sS'THANK'
p4093
I1
sS'even'
p4094
I164
sS'irristable'
p4095
I1
sS'wreck'
p4096
I1
sS'NOOOO'
p4097
I1
sS'while'
p4098
I25
sS'lights'
p4099
I2
sS'Harry'
p4100
I6
sS'Put'
p4101
I1
sS'new'
p4102
I18
sS'net'
p4103
I1
sS'ever'
p4104
I169
sS'messanger'
p4105
I1
sS'relationships'
p4106
I2
sS'afterward'
p4107
I1
sS'Afterbirth'
p4108
I1
sS'never'
p4109
I78
sS'anticlimactic'
p4110
I1
sS'100'
p4111
I4
sS'cardboard'
p4112
I1
sS'dry'
p4113
I5
sS'X-Men'
p4114
I3
sS'tapes'
p4115
I1
sS'economics'
p4116
I1
sS'hokey'
p4117
I4
sS'complicated'
p4118
I2
sS'fantastic'
p4119
I4
sS'historicaly'
p4120
I1
sS'City'
p4121
I1
sS'objectively'
p4122
I1
sS'Also'
p4123
I11
sS'Behind'
p4124
I1
sS'moral'
p4125
I8
sS'Piano'
p4126
I1
sS'Epic'
p4127
I1
sS'criminals'
p4128
I1
sS'lame-ass'
p4129
I1
sS'arms'
p4130
I1
sS'tele'
p4131
I1
sS'lightsaber'
p4132
I1
sS'recommend'
p4133
I16
sS'survive'
p4134
I1
sS'type'
p4135
I8
sS'tell'
p4136
I23
sS'1000'
p4137
I1
sS'Additionally'
p4138
I4
sS'oscar'
p4139
I4
sS'wars'
p4140
I3
sS'warp'
p4141
I1
sS'warn'
p4142
I1
sS'adult'
p4143
I2
sS'room'
p4144
I7
sS'rights'
p4145
I2
sS'roof'
p4146
I1
sS'movies'
p4147
I172
sS'alleged'
p4148
I1
sS'guise'
p4149
I1
sS'akin'
p4150
I1
sS'root'
p4151
I3
sS'"dirty"'
p4152
I1
sS'give'
p4153
I41
sS'climax'
p4154
I2
sS'Wizard'
p4155
I1
sS'laughs'
p4156
I1
sS'honey'
p4157
I2
sS'Conick'
p4158
I1
sS'cursory'
p4159
I1
sS'Phoenix'
p4160
I1
sS'Watching'
p4161
I2
sS'Massacre'
p4162
I2
sS'Irving'
p4163
I1
sS'stupidity'
p4164
I7
sS'Jack'
p4165
I7
sS'harkens'
p4166
I1
sS'Kay'
p4167
I1
sS'massive'
p4168
I1
sS'minority'
p4169
I2
sS'vicious'
p4170
I1
sS'ANTI'
p4171
I1
sS'curiosity'
p4172
I3
sS'president'
p4173
I6
sS'lesbian'
p4174
I2
sS'All'
p4175
I22
sS'attempt'
p4176
I17
sS'third'
p4177
I2
sS'replication'
p4178
I1
sS'Civil'
p4179
I1
sS'fictitious'
p4180
I1
sS'jumbled'
p4181
I1
sS'Meanace'
p4182
I1
sS'athletes'
p4183
I2
sS'wus'
p4184
I1
sS'tribulations'
p4185
I1
sS'fetus'
p4186
I1
sS'inconclusive'
p4187
I1
sS'ghastly'
p4188
I1
sS'Biggest'
p4189
I1
sS'before'
p4190
I24
sS'furlong'
p4191
I1
sS'personal'
p4192
I4
sS','
p4193
I2221
sS'crew'
p4194
I4
sS'better'
p4195
I73
sS'Osmet'
p4196
I1
sS'differently'
p4197
I1
sS'Birth'
p4198
I1
sS'Helen'
p4199
I3
sS'weeks'
p4200
I1
sS'SNF'
p4201
I1
sS'Generals'
p4202
I3
sS'Bobby'
p4203
I1
sS'weakness'
p4204
I1
sS'arsnic'
p4205
I1
sS'esteemed'
p4206
I1
sS'back-drop'
p4207
I1
sS'indulge'
p4208
I1
sS'downright'
p4209
I2
sS'Hartnett'
p4210
I1
sS'Secondly'
p4211
I1
sS'meat'
p4212
I2
sS'arrested'
p4213
I1
sS'Dern'
p4214
I1
sS'appauling'
p4215
I1
sS'ovation'
p4216
I1
sS'went'
p4217
I26
sS'Hate'
p4218
I2
sS'side'
p4219
I5
sS'mean'
p4220
I28
sS'Wow'
p4221
I2
sS'GOOD'
p4222
I1
sS'over-use'
p4223
I1
sS'forgot'
p4224
I2
sS'Woe'
p4225
I1
sS'videotape'
p4226
I2
sS'revolting'
p4227
I1
sS'content'
p4228
I4
sS'bellybutton'
p4229
I1
sS'surprise'
p4230
I3
sS'sluggish'
p4231
I1
sS'Wahlberg'
p4232
I1
sS'revenge'
p4233
I2
sS'mistress'
p4234
I1
sS'Clinton'
p4235
I1
sS'starts'
p4236
I8
sS'professions'
p4237
I1
sS'messages'
p4238
I1
sS'isn'
p4239
I34
sS'Annoying'
p4240
I2
sS'loud'
p4241
I3
sS'Homicide'
p4242
I1
sS'fictions'
p4243
I1
sS'features'
p4244
I2
sS'grade'
p4245
I6
sS'Halle'
p4246
I3
sS'Creative'
p4247
I1
sS'hook'
p4248
I1
sS'featured'
p4249
I3
sS'psychotic'
p4250
I1
sS'auto-cue'
p4251
I1
sS'girls'
p4252
I7
sS'twisted'
p4253
I5
sS'witnessing'
p4254
I2
sS'hollywood'
p4255
I3
sS'dinos'
p4256
I1
sS'definitly'
p4257
I1
sS'trippy'
p4258
I1
sS'enjot'
p4259
I1
sS'Boonton'
p4260
I1
sS'Malden'
p4261
I1
sS'somewhat'
p4262
I5
sS'poseur'
p4263
I1
sS'requisite'
p4264
I1
sS'spoiler'
p4265
I1
sS'dredge'
p4266
I1
sS'fairytale'
p4267
I1
sS'Cyber'
p4268
I1
sS'matter'
p4269
I10
sS'silly'
p4270
I11
sS'littly'
p4271
I1
sS'deserving'
p4272
I1
sS'spoiled'
p4273
I2
sS'mini'
p4274
I1
sS'out-act'
p4275
I1
sS'modern'
p4276
I15
sS'mind'
p4277
I17
sS'mine'
p4278
I3
sS'all-time'
p4279
I1
sS'emphasizing'
p4280
I1
sS'seen'
p4281
I113
sS'seem'
p4282
I12
sS'mins'
p4283
I3
sS'tells'
p4284
I4
sS'Clone'
p4285
I1
sS'NEVER'
p4286
I5
sS'POS'
p4287
I1
sS'POP'
p4288
I1
sS'unexploited'
p4289
I1
sS'panties'
p4290
I2
sS'tyo'
p4291
I1
sS'Dunst'
p4292
I1
sS'wrists'
p4293
I3
sS'stolid'
p4294
I1
sS'Unfortunatly'
p4295
I1
sS'Capricious'
p4296
I1
sS'don'
p4297
I83
sS'doo'
p4298
I1
sS'm'
p4299
I62
sS'dog'
p4300
I7
sS'Oscar-what'
p4301
I1
sS'digress'
p4302
I1
sS'points'
p4303
I4
sS'annoyed'
p4304
I2
sS'doves'
p4305
I1
sS'jews_white_slavery'
p4306
I1
sS'beaten'
p4307
I1
sS'retire'
p4308
I1
sS'brilliance'
p4309
I3
sS'ending'
p4310
I49
sS'implying'
p4311
I1
sS'attempts'
p4312
I4
sS'whatsover'
p4313
I1
sS'explain'
p4314
I6
sS'Game'
p4315
I1
sS'sugar'
p4316
I1
sS'stabbing'
p4317
I1
sS'Others'
p4318
I4
sS'folks'
p4319
I5
sS'gangsta'
p4320
I1
sS'History'
p4321
I1
sS'wearing'
p4322
I1
sS'stop'
p4323
I14
sS'Days'
p4324
I2
sS'coast'
p4325
I1
sS'Leave'
p4326
I1
sS'Heck'
p4327
I1
sS'quarters'
p4328
I1
sS'WHERE'
p4329
I1
sS'bat'
p4330
I1
sS'bar'
p4331
I3
sS'Over'
p4332
I1
sS'Washington'
p4333
I1
sS'bag'
p4334
I8
sS'bad'
p4335
I166
sS'crapfest'
p4336
I1
sS'ears'
p4337
I3
sS'HAVE'
p4338
I1
sS'reference'
p4339
I2
sS'zoned'
p4340
I1
sS'imitate'
p4341
I1
sS'Christianity'
p4342
I1
sS'decided'
p4343
I11
sS'Butler'
p4344
I1
sS'subject'
p4345
I3
sS'pete'
p4346
I1
sS'00'
p4347
I3
sS'said'
p4348
I26
sS'Took'
p4349
I1
sS'artificial'
p4350
I1
sS'sais'
p4351
I1
sS'sorts'
p4352
I1
sS'tolerance'
p4353
I1
sS'relatable'
p4354
I1
sS'dumber'
p4355
I2
sS'ignorance'
p4356
I1
sS'cousin'
p4357
I1
sS'picking'
p4358
I1
sS'uncreative'
p4359
I2
sS'Otherwise'
p4360
I4
sS'suggested'
p4361
I2
sS'against'
p4362
I9
sS'Given'
p4363
I1
sS'appeared'
p4364
I2
sS'height'
p4365
I1
sS'initiative'
p4366
I1
sS'Forest'
p4367
I1
sS'manniquins'
p4368
I1
sS'proceeded'
p4369
I2
sS'puts'
p4370
I5
sS'three'
p4371
I21
sS'tiny'
p4372
I3
sS'Early'
p4373
I1
sS'interest'
p4374
I7
sS'basic'
p4375
I4
sS'lovely'
p4376
I3
sS'idol'
p4377
I2
sS'threw'
p4378
I1
sS'CK'
p4379
I1
sS'deeper'
p4380
I1
sS'sooooo'
p4381
I2
sS'loudmouthed'
p4382
I1
sS'Misery'
p4383
I1
sS'anti-arab'
p4384
I1
sS'horrorfying'
p4385
I1
sS'unpopular'
p4386
I2
sS'exception'
p4387
I2
sS'Pleaaassseee'
p4388
I1
sS'sacchrine'
p4389
I1
sS'sadists'
p4390
I1
sS'tastes'
p4391
I1
sS'transformation'
p4392
I2
sS'trapsing'
p4393
I1
sS'ugly'
p4394
I8
sS'near'
p4395
I6
sS'suppose'
p4396
I4
sS'murders'
p4397
I1
sS'settler'
p4398
I1
sS'chilling'
p4399
I1
sS'pessimistic'
p4400
I1
sS'seven'
p4401
I2
sS'worse-'
p4402
I1
sS'HATED'
p4403
I2
sS'is'
p4404
I894
sS'it'
p4405
I927
sS'shame'
p4406
I4
sS'cant'
p4407
I6
sS'im'
p4408
I3
sS'in'
p4409
I646
sS'mouse'
p4410
I1
sS'id'
p4411
I4
sS'if'
p4412
I115
sS'grown'
p4413
I4
sS'make'
p4414
I106
sS'Latte'
p4415
I1
sS'potentially'
p4416
I1
sS'unfortunate'
p4417
I2
sS'80s'
p4418
I1
sS'President'
p4419
I2
sS'confronting'
p4420
I1
sS'Beatlemania'
p4421
I1
sS'meets'
p4422
I4
sS'Englund'
p4423
I1
sS'Usually'
p4424
I1
sS'opportunity'
p4425
I2
sS'kid'
p4426
I14
sS'practiced'
p4427
I2
sS'LAME'
p4428
I3
sS'youre'
p4429
I3
sS'Vs'
p4430
I1
sS'qualities'
p4431
I1
sS'claims'
p4432
I2
sS'smoked'
p4433
I1
sS'left'
p4434
I28
sS'yeh'
p4435
I1
sS'Ameil'
p4436
I1
sS'just'
p4437
I223
sS'sentence'
p4438
I1
sS'sporting'
p4439
I1
sS'unfair'
p4440
I1
sS'verses'
p4441
I1
sS'certaintly'
p4442
I2
sS'identify'
p4443
I1
sS'Cyber-Jason'
p4444
I1
sS'human'
p4445
I13
sS'facts'
p4446
I2
sS'yes'
p4447
I4
sS'yet'
p4448
I22
sS'rubber'
p4449
I1
sS'Bacall'
p4450
I1
sS'candidate'
p4451
I1
sS'legion'
p4452
I2
sS'assassination'
p4453
I1
sS'character'
p4454
I48
sS'Boss'
p4455
I2
sS'contestant'
p4456
I4
sS'save'
p4457
I22
sS'disect'
p4458
I1
sS'rehash'
p4459
I1
sS'Roberts'
p4460
I2
sS'background'
p4461
I3
sS'wanting'
p4462
I3
sS'depicts'
p4463
I1
sS'dreams'
p4464
I1
sS'Barker'
p4465
I1
sS'DISNEYFIED'
p4466
I1
sS'unnecessary'
p4467
I2
sS'intermittently'
p4468
I1
sS'Are'
p4469
I3
sS'zombies'
p4470
I4
sS'notorious'
p4471
I1
sS'primative'
p4472
I1
sS'cowardice'
p4473
I1
sS'www'
p4474
I3
sS'deal'
p4475
I3
sS'deaf'
p4476
I1
sS'somehow'
p4477
I1
sS'dead'
p4478
I29
sS'Gigli'
p4479
I6
sS'dear'
p4480
I2
sS'suckiest'
p4481
I1
sS'normal'
p4482
I2
sS'Quite'
p4483
I3
sS'Achilies'
p4484
I1
sS'Villecheve'
p4485
I1
sS'provoking'
p4486
I1
sS'Limpet'
p4487
I1
sS'burn'
p4488
I2
sS'protagonist'
p4489
I1
sS'Depp'
p4490
I3
sS'bury'
p4491
I1
sS'digestible'
p4492
I1
sS'yelling'
p4493
I2
sS'barbarians'
p4494
I1
sS'cliche'
p4495
I6
sS'afternoon'
p4496
I3
sS'Cameron'
p4497
I2
sS'badily'
p4498
I1
sS'scenary'
p4499
I1
sS'automatically'
p4500
I1
sS'Flashy'
p4501
I1
sS'robocop'
p4502
I1
sS'thinner'
p4503
I1
sS'whats'
p4504
I2
sS'formerly'
p4505
I1
sS'Dallas'
p4506
I2
sS'bundles'
p4507
I1
sS'intellectual'
p4508
I3
sS'down'
p4509
I34
sS'lies'
p4510
I3
sS'Vinny'
p4511
I1
sS'doctrine'
p4512
I1
sS'Stay'
p4513
I4
sS'frightened'
p4514
I2
sS'Unless'
p4515
I2
sS'amazingly'
p4516
I1
sS'initial'
p4517
I1
sS'Gwyneth'
p4518
I1
sS'STUPID'
p4519
I5
sS'editor'
p4520
I1
sS'flying'
p4521
I1
sS'Faucet'
p4522
I1
sS'form'
p4523
I3
sS'January'
p4524
I1
sS'failure'
p4525
I3
sS'Z'
p4526
I4
sS'atrocities'
p4527
I2
sS'Golden'
p4528
I1
sS'understood'
p4529
I1
sS'bounds'
p4530
I1
sS'horrifying'
p4531
I2
sS'propaganda'
p4532
I6
sS'grenades'
p4533
I1
sS'sticks'
p4534
I1
sS'classic'
p4535
I13
sS'Conner'
p4536
I1
sS'ship'
p4537
I11
sS'suspence'
p4538
I2
sS'agreeing'
p4539
I1
sS'generally'
p4540
I1
sS'escapism'
p4541
I1
sS'Jar-Jar'
p4542
I1
sS'dies'
p4543
I6
sS'Hunt'
p4544
I2
sS'Drive'
p4545
I1
sS'vu'
p4546
I1
sS'fell'
p4547
I24
sS'idealogy'
p4548
I1
sS'weekend'
p4549
I1
sS'died'
p4550
I7
sS'jacked'
p4551
I1
sS'midevil'
p4552
I1
sS'unappealling'
p4553
I1
sS'happening'
p4554
I3
sS'jackel'
p4555
I1
sS'Sheesh'
p4556
I1
sS'pseudo'
p4557
I1
sS'jacket'
p4558
I1
sS'Second'
p4559
I1
sS'Pathetically'
p4560
I1
sS'teeth'
p4561
I1
sS'managed'
p4562
I7
sS'themed'
p4563
I1
sS'skip'
p4564
I1
sS'excellent'
p4565
I8
sS'souls'
p4566
I1
sS'themes'
p4567
I1
sS'Trekkies'
p4568
I2
sS'mile'
p4569
I2
sS'skin'
p4570
I1
sS'mill'
p4571
I1
sS'primer'
p4572
I1
sS'milk'
p4573
I1
sS'suicide'
p4574
I2
sS'Nines'
p4575
I1
sS'fifth-rate'
p4576
I1
sS'hound-dog'
p4577
I1
sS'father'
p4578
I7
sS'bordered'
p4579
I1
sS'psychics'
p4580
I1
sS'0'
p4581
I9
sS'finally'
p4582
I7
sS'praised'
p4583
I3
sS'reptiles'
p4584
I1
sS'marks'
p4585
I1
sS'suffered'
p4586
I1
sS'FORREST'
p4587
I1
sS'Easton'
p4588
I3
sS'me'
p4589
I213
sS'sci-fi'
p4590
I17
sS'Buddies'
p4591
I1
sS'Plus'
p4592
I6
sS'ma'
p4593
I1
sS'Where'
p4594
I13
sS'dim'
p4595
I1
sS'did'
p4596
I101
sS'die'
p4597
I21
sS'democrat'
p4598
I2
sS'dis'
p4599
I1
sS'talked'
p4600
I2
sS'nineties'
p4601
I1
sS'dealing'
p4602
I4
sS'inconsequential'
p4603
I1
sS'Nellie'
p4604
I2
sS'captures'
p4605
I1
sS'Shakespeare'
p4606
I5
sS'corner'
p4607
I1
sS'run'
p4608
I10
sS'targets'
p4609
I1
sS'sabertooth'
p4610
I1
sS'filler'
p4611
I2
sS'suspect'
p4612
I1
sS'Neill'
p4613
I1
sS'filled'
p4614
I6
sS'clerk'
p4615
I1
sS'makeup'
p4616
I3
sS'victimized'
p4617
I2
sS'french'
p4618
I1
sS'Stalin'
p4619
I1
sS'Times'
p4620
I2
sS'Charlize'
p4621
I1
sS'wait'
p4622
I8
sS'box'
p4623
I5
sS'boy'
p4624
I7
sS'Pfeiffer'
p4625
I1
sS'battling'
p4626
I1
sS'bop'
p4627
I1
sS'salvage'
p4628
I1
sS'exploitation'
p4629
I4
sS'boooooring'
p4630
I1
sS'priceless'
p4631
I1
sS'bob'
p4632
I1
sS'teenage'
p4633
I3
sS'useful'
p4634
I1
sS'Matrix'
p4635
I6
sS'merely'
p4636
I1
sS'When'
p4637
I24
sS'histories'
p4638
I1
sS'Starfleet'
p4639
I1
sS'Talkin'
p4640
I1
sS'Matric'
p4641
I1
sS'sympathetic'
p4642
I1
sS'troops'
p4643
I1
sS'sake'
p4644
I4
sS'visit'
p4645
I2
sS'scenarios'
p4646
I1
sS'Awards'
p4647
I1
sS'sharpen'
p4648
I1
sS'thru'
p4649
I3
sS'beer-drinking'
p4650
I1
sS'Ben'
p4651
I8
sS'Starring'
p4652
I1
sS'Orlando'
p4653
I1
sS'Bee'
p4654
I5
sS'scivvies'
p4655
I1
sS'savior'
p4656
I1
sS'Brad'
p4657
I3
sS'effort'
p4658
I4
sS'Translation'
p4659
I4
sS'fly'
p4660
I1
sS'fictionalized'
p4661
I1
sS'SCI-FI'
p4662
I1
sS'unexciting'
p4663
I1
sS'simpletons'
p4664
I1
sS'soul'
p4665
I4
sS'Pacific'
p4666
I1
sS'premarital'
p4667
I1
sS'reviews'
p4668
I9
sS'frivolity'
p4669
I1
sS'sour'
p4670
I1
sS'drags'
p4671
I5
sS'growing'
p4672
I2
sS'making'
p4673
I27
sS'arrive'
p4674
I1
sS'Children'
p4675
I1
sS'claim'
p4676
I2
sS'crazy'
p4677
I10
sS'cantidad'
p4678
I1
sS'predict'
p4679
I1
sS'concocted'
p4680
I2
sS'confused'
p4681
I6
sS'agent'
p4682
I1
sS'Damon'
p4683
I2
sS'confuses'
p4684
I1
sS'YOUR'
p4685
I2
sS'craze'
p4686
I1
sS'Bimbo'
p4687
I1
sS'Gambit'
p4688
I1
sS'till'
p4689
I1
sS'emotionless'
p4690
I1
sS'pure'
p4691
I10
sS'trollop'
p4692
I1
sS'map'
p4693
I1
sS'144'
p4694
I1
sS'may'
p4695
I26
sS'fed'
p4696
I1
sS'membership'
p4697
I1
sS'ISHTAR'
p4698
I1
sS'mad'
p4699
I3
sS'crappiest'
p4700
I1
sS'Animated'
p4701
I1
sS'guys'
p4702
I16
sS'grow'
p4703
I2
sS'HYPERCITY'
p4704
I1
sS'man'
p4705
I19
sS'close-up'
p4706
I1
sS'aimless'
p4707
I1
sS'waist'
p4708
I3
sS'maybe'
p4709
I13
sS'q'
p4710
I1
sS'switch'
p4711
I3
sS'talk'
p4712
I6
sS'cute'
p4713
I7
sS'inovator'
p4714
I1
sS'shaky'
p4715
I1
sS'wishing'
p4716
I2
sS'star-studded'
p4717
I1
sS'pitch'
p4718
I3
sS'differs'
p4719
I1
sS'irene'
p4720
I1
sS'HAS'
p4721
I2
sS'group'
p4722
I7
sS'thank'
p4723
I3
sS'interesting'
p4724
I24
sS'Rain'
p4725
I1
sS'WTF'
p4726
I4
sS'listing'
p4727
I1
sS'WTH'
p4728
I1
sS'World'
p4729
I3
sS'main'
p4730
I11
sS'texas'
p4731
I1
sS'views'
p4732
I3
sS'killer'
p4733
I18
sS'sooner'
p4734
I2
sS'moron'
p4735
I1
sS'distateful'
p4736
I1
sS'She'
p4737
I18
sS'Ottman'
p4738
I1
sS'killed'
p4739
I15
sS'Everything'
p4740
I3
sS'Simple'
p4741
I2
sS'Simply'
p4742
I1
sS'rock'
p4743
I8
sS'lal'
p4744
I1
sS'relys'
p4745
I1
sS'preaching'
p4746
I1
sS'girl'
p4747
I21
sS'Ken'
p4748
I1
sS'3rd'
p4749
I2
sS'Kee'
p4750
I1
sS'pedophile'
p4751
I1
sS'undertone'
p4752
I1
sS'Plague'
p4753
I1
sS'dominate'
p4754
I1
sS'brimming'
p4755
I1
sS'Stone'
p4756
I3
sS'after'
p4757
I43
sS'monster'
p4758
I1
sS'Farrah'
p4759
I1
sS'impressed'
p4760
I2
sS'gagging'
p4761
I1
sS'Jude'
p4762
I1
sS'Judd'
p4763
I2
sS'advance'
p4764
I1
sS'surrealistic'
p4765
I2
sS'language'
p4766
I9
sS'Being'
p4767
I2
sS'oooeeeeeeeeeeeeeeeeeeeeeeeeeeee'
p4768
I1
sS'thing'
p4769
I79
sS'think'
p4770
I99
sS'waited'
p4771
I3
sS'first'
p4772
I97
sS'cheese'
p4773
I2
sS'Eric'
p4774
I1
sS'menadering'
p4775
I1
sS'INSANITY'
p4776
I1
sS'Black'
p4777
I7
sS'fast'
p4778
I4
sS'Probably'
p4779
I3
sS'sounds'
p4780
I5
sS'cheesy'
p4781
I9
sS'goup'
p4782
I1
sS'yicky'
p4783
I1
sS'little'
p4784
I45
sS'personalities'
p4785
I2
sS'murky'
p4786
I1
sS'anyone'
p4787
I39
sS'Intentions'
p4788
I2
sS'Completely'
p4789
I2
sS'Goodguy'
p4790
I1
sS'WORLD'
p4791
I1
sS'Post'
p4792
I1
sS'Frightening'
p4793
I1
sS'mermaid'
p4794
I1
sS'subplot'
p4795
I2
sS'eyes'
p4796
I9
sS'continuous'
p4797
I1
sS'accurately'
p4798
I1
sS'broadcast'
p4799
I1
sS'"League'
p4800
I1
sS'sequels'
p4801
I12
sS'butt'
p4802
I4
sS'11'
p4803
I3
sS'10'
p4804
I11
sS'13'
p4805
I2
sS'12'
p4806
I3
sS'15'
p4807
I8
sS'14'
p4808
I1
sS'16'
p4809
I2
sS'19'
p4810
I1
sS'18'
p4811
I3
sS'gotta'
p4812
I1
sS'BRUTAL'
p4813
I1
sS'snoozer'
p4814
I1
sS'knives'
p4815
I1
sS'were'
p4816
I137
sS'DO'
p4817
I2
sS'gathering'
p4818
I1
sS'PEICE'
p4819
I1
sS'Hobbits'
p4820
I2
sS'complaint-'
p4821
I1
sS'sult'
p4822
I1
sS'conspiracy'
p4823
I1
sS'spectacle'
p4824
I3
sS'Tell'
p4825
I1
sS'kevin'
p4826
I1
sS'Do'
p4827
I13
sS'Shaun'
p4828
I1
sS'mind-numbingly'
p4829
I1
sS'De'
p4830
I1
sS'foreigner'
p4831
I1
sS'shocked'
p4832
I2
sS'potential'
p4833
I6
sS'shocker'
p4834
I2
sS'performance'
p4835
I16
sS'Dr'
p4836
I3
sS'channel'
p4837
I3
sS'200'
p4838
I1
sS'pain'
p4839
I1
sS'theatre'
p4840
I11
sS'Covering'
p4841
I1
sS'Keanu'
p4842
I4
sS'paid'
p4843
I9
sS'insanity'
p4844
I1
sS'Strawberry'
p4845
I1
sS'girlfriends'
p4846
I1
sS'tract'
p4847
I1
sS'complaints'
p4848
I1
sS'atrocity'
p4849
I3
sS'massacred'
p4850
I1
sS'especially'
p4851
I14
sS'surprising'
p4852
I3
sS'angst'
p4853
I3
sS'That'
p4854
I34
sS'shop'
p4855
I1
sS'rating'
p4856
I22
sS'WE'
p4857
I1
sS'shot'
p4858
I13
sS'WB'
p4859
I1
sS'show'
p4860
I22
sS'contemporary'
p4861
I2
sS'Stephen'
p4862
I2
sS'Gate'
p4863
I1
sS'Mathew'
p4864
I1
sS'We'
p4865
I6
sS'pinheads'
p4866
I1
sS'crapped'
p4867
I1
sS'behind'
p4868
I9
sS'Hulk'
p4869
I1
sS'black'
p4870
I18
sS'travesty'
p4871
I4
sS'disconcerting'
p4872
I1
sS'revisionist'
p4873
I1
sS'sensitivities'
p4874
I1
sS'RIA'
p4875
I2
sS'ranking'
p4876
I1
sS'get'
p4877
I102
sS'geocentric'
p4878
I1
sS'spraying'
p4879
I1
sS'unimportant'
p4880
I2
sS'killers'
p4881
I2
sS'nearly'
p4882
I5
sS'gee'
p4883
I1
sS'denials'
p4884
I1
sS'teens'
p4885
I2
sS'gem'
p4886
I1
sS'Right'
p4887
I3
sS'Angel'
p4888
I1
sS'morning'
p4889
I2
sS'stupid'
p4890
I91
sS'profanity-filled'
p4891
I1
sS'nostril'
p4892
I1
sS'seat'
p4893
I3
sS'Sigourney'
p4894
I1
sS'Hopefully'
p4895
I3
sS'HELL'
p4896
I3
sS'wonder'
p4897
I11
sS'camping'
p4898
I1
sS'Hours'
p4899
I1
sS'enough'
p4900
I38
sS'reading'
p4901
I9
sS'across'
p4902
I5
sS'satiate'
p4903
I1
sS'FOR'
p4904
I2
sS'Atheist'
p4905
I1
sS'crucified'
p4906
I1
sS'killing'
p4907
I9
sS'tub'
p4908
I3
sS'tug'
p4909
I1
sS'dates'
p4910
I1
sS'stinker'
p4911
I2
sS'according'
p4912
I2
sS'tour'
p4913
I1
sS'patrons'
p4914
I1
sS'disappointment'
p4915
I7
sS'remake'
p4916
I17
sS'improv'
p4917
I1
sS'franchise'
p4918
I6
sS'among'
p4919
I2
sS'JAWS'
p4920
I1
sS'Trilogy'
p4921
I1
sS'Pearl'
p4922
I1
sS'freak'
p4923
I3
sS'custody'
p4924
I2
sS'nose'
p4925
I2
sS'considering'
p4926
I7
sS'unusual'
p4927
I2
sS'Sure'
p4928
I2
sS'capable'
p4929
I1
sS'mark'
p4930
I3
sS'BLECHH'
p4931
I1
sS'wobbly'
p4932
I1
sS'dadpan'
p4933
I1
sS'Daltry'
p4934
I1
sS'borders'
p4935
I2
sS'protrays'
p4936
I1
sS'educated'
p4937
I3
sS'shopping'
p4938
I1
sS'Broderick'
p4939
I1
sS'Poke'
p4940
I1
sS'offered'
p4941
I1
sS'DUNG'
p4942
I1
sS'dramatic'
p4943
I13
sS'Overrated'
p4944
I2
sS'Action'
p4945
I1
sS'Rustun'
p4946
I1
sS'COME'
p4947
I2
sS'those'
p4948
I31
sS'sound'
p4949
I12
sS'warning'
p4950
I1
sS'promising'
p4951
I2
sS'Venice'
p4952
I1
sS'eventually'
p4953
I2
sS'Suvari'
p4954
I2
sS'coffee'
p4955
I1
sS'sleeping'
p4956
I3
sS'middle'
p4957
I7
sS'sudden'
p4958
I1
sS'purportedly'
p4959
I1
sS'obnoxious'
p4960
I4
sS'everyday'
p4961
I1
sS'movements'
p4962
I4
sS'bags'
p4963
I1
sS'different'
p4964
I12
sS'pat'
p4965
I1
sS'Chucky'
p4966
I5
sS'Notre'
p4967
I1
sS'scriptwriters'
p4968
I1
sS'same'
p4969
I34
sS'loudly'
p4970
I1
sS'speech'
p4971
I4
sS'Waves'
p4972
I1
sS'struggling'
p4973
I1
sS'pan'
p4974
I1
sS'dated'
p4975
I3
sS'extended'
p4976
I2
sS'EXISTS'
p4977
I1
sS'running'
p4978
I9
sS'disapointing'
p4979
I2
sS'Myers'
p4980
I4
sS'totally'
p4981
I27
sS'shopworn'
p4982
I1
sS'Voorhes'
p4983
I1
sS'Rene'
p4984
I1
sS'amazes'
p4985
I1
sS'bumping'
p4986
I1
sS'amazed'
p4987
I3
sS'parody'
p4988
I3
sS'gangs'
p4989
I1
sS'money'
p4990
I60
sS'pissing'
p4991
I1
sS'wifey'
p4992
I1
sS'aspect'
p4993
I1
sS'asleep-'
p4994
I1
sS'clueless'
p4995
I1
sS'NC-17'
p4996
I1
sS'Ripper'
p4997
I1
sS'4'
p4998
I11
sS'Although'
p4999
I6
sS'grating'
p5000
I1
sS'sTEPHEN'
p5001
I1
sS'extensive'
p5002
I1
sS'pill'
p5003
I1
sS'careers'
p5004
I1
sS'grip'
p5005
I1
sS'mor'
p5006
I1
sS'Polak'
p5007
I1
sS'chainsaw'
p5008
I1
sS'seres'
p5009
I1
sS'mon'
p5010
I2
sS'mom'
p5011
I5
sS'mob'
p5012
I1
sS'disappointed'
p5013
I13
sS'illiterates'
p5014
I1
sS'missing-'
p5015
I1
sS'serves'
p5016
I5
sS'audience'
p5017
I10
sS'either'
p5018
I20
sS'stinkeroo'
p5019
I1
sS'unintintionaly'
p5020
I1
sS'Neo'
p5021
I5
sS'climactic'
p5022
I1
sS'witchcraft'
p5023
I4
sS'Gerald'
p5024
I1
sS'meanders'
p5025
I1
sS'images'
p5026
I2
sS'New'
p5027
I11
sS'gross'
p5028
I6
sS'Meg'
p5029
I4
sS'Gees'
p5030
I5
sS'Mel'
p5031
I10
sS'Men'
p5032
I2
sS'overly'
p5033
I6
sS'oevrall'
p5034
I1
sS'critical'
p5035
I5
sS'dimbulbs'
p5036
I1
sS'moderate'
p5037
I1
sS'knife'
p5038
I1
sS'egocentric'
p5039
I1
sS'dissapointing'
p5040
I2
sS'seconds'
p5041
I9
sS'notable'
p5042
I1
sS'arts'
p5043
I2
sS'broken'
p5044
I1
sS'roaming'
p5045
I1
sS'Dre'
p5046
I1
sS'raptor'
p5047
I1
sS'crabtree'
p5048
I3
sS'tease'
p5049
I1
sS'AAAAARRRRRGGGGGHHHHH'
p5050
I1
sS'island'
p5051
I2
sS'violence'
p5052
I15
sS'develops'
p5053
I1
sS'air-sickness'
p5054
I1
sS'demonic'
p5055
I1
sS'pockets'
p5056
I1
sS'Dumbest'
p5057
I1
sS'mixed'
p5058
I1
sS'threesome'
p5059
I1
sS'road'
p5060
I1
sS'lands'
p5061
I1
sS'dagger'
p5062
I1
sS'coupon'
p5063
I1
sS'spreading'
p5064
I1
sS'skilled'
p5065
I1
sS'dung-beetle'
p5066
I1
sS'einstein'
p5067
I1
sS'othewise'
p5068
I1
sS'Though'
p5069
I2
sS'brute'
p5070
I1
sS'dreaming'
p5071
I1
sS'madder'
p5072
I2
sS'downey'
p5073
I1
sS'Characters'
p5074
I1
sS'unsatisfaction'
p5075
I1
sS'laboriously'
p5076
I1
sS'downer'
p5077
I2
sS'gory'
p5078
I5
sS'Walked'
p5079
I1
sS'gore'
p5080
I15
sS'overlong'
p5081
I2
sS'Beneath'
p5082
I1
sS'romantic'
p5083
I1
sS'drills'
p5084
I1
sS'Eddie'
p5085
I1
sS'dvd'
p5086
I1
sS'Pollak'
p5087
I1
sS'videos'
p5088
I1
sS'Wicker'
p5089
I1
sS'deep'
p5090
I7
sS'general'
p5091
I5
sS'imagination'
p5092
I5
sS'girlfriend'
p5093
I5
sS'flakey'
p5094
I1
sS'deed'
p5095
I1
sS'utilised'
p5096
I1
sS'film'
p5097
I254
sS'fill'
p5098
I2
sS'tedious'
p5099
I6
sS'again'
p5100
I30
sS'Benes'
p5101
I1
sS'drivers'
p5102
I1
sS'WHEN'
p5103
I1
sS'depth'
p5104
I6
sS'computer-generated'
p5105
I1
sS'stilted'
p5106
I1
sS'students'
p5107
I2
sS'important'
p5108
I3
sS'puked'
p5109
I1
sS'mishmash'
p5110
I1
sS'Holy'
p5111
I1
sS'Yeah'
p5112
I4
sS'u'
p5113
I5
sS'haired'
p5114
I1
sS'alright'
p5115
I5
sS'LONG'
p5116
I1
sS'resolution'
p5117
I1
sS'represent'
p5118
I1
sS'Speilberg'
p5119
I2
sS'liar'
p5120
I1
sS'forget'
p5121
I4
sS'Treacle'
p5122
I1
sS'nonexistant'
p5123
I1
sS'forty'
p5124
I1
sS'sunk'
p5125
I2
sS'Wayne'
p5126
I1
sS'talks'
p5127
I1
sS'children'
p5128
I11
sS'reluctant'
p5129
I1
sS'alongs'
p5130
I1
sS'Astin'
p5131
I1
sS'anti-semitic'
p5132
I1
sS'hideous'
p5133
I1
sS'Auberjonios'
p5134
I1
sS'Carpentetrs'
p5135
I1
sS'straightforward'
p5136
I1
sS'sitting'
p5137
I4
sS'overdone'
p5138
I2
sS'ratings-'
p5139
I1
sS'witted'
p5140
I1
sS'difference'
p5141
I2
sS'drugged'
p5142
I1
sS'bankrolled'
p5143
I1
sS'Kill'
p5144
I3
sS'B-grade'
p5145
I1
sS'Ring'
p5146
I3
sS'embarrasing'
p5147
I2
sS'Needs'
p5148
I1
sS'Scary'
p5149
I2
sS'Actually'
p5150
I3
sS'Only'
p5151
I2
sS'titles'
p5152
I1
sS'perspective'
p5153
I2
sS'lawyer'
p5154
I1
sS'BIGGEST'
p5155
I1
sS'further'
p5156
I6
sS'creatures'
p5157
I1
sS'90s'
p5158
I1
sS'stood'
p5159
I1
sS'illogical'
p5160
I2
sS'TALKING'
p5161
I1
sS'diaz'
p5162
I1
sS'Bleah'
p5163
I1
sS'movement'
p5164
I2
sS'NFL'
p5165
I2
sS'minuets'
p5166
I1
sS'surfer'
p5167
I1
sS'Contact'
p5168
I1
sS'threads'
p5169
I1
sS'reeeeaaal'
p5170
I1
sS'GEN-X'
p5171
I1
sS'GEN-Y'
p5172
I1
sS'search'
p5173
I1
sS'bible'
p5174
I1
sS'misery'
p5175
I2
sS'Naomi'
p5176
I2
sS'creepiness'
p5177
I1
sS'perpetuate'
p5178
I1
sS'vividly'
p5179
I1
sS'rampage'
p5180
I1
sS'rican'
p5181
I1
sS'suits'
p5182
I1
sS'Dolls'
p5183
I1
sS'eye'
p5184
I2
sS'destination'
p5185
I1
sS'two'
p5186
I41
sS'comparing'
p5187
I1
sS'Coming'
p5188
I1
sS'Picasso'
p5189
I1
sS'jangling'
p5190
I1
sS'American'
p5191
I16
sS'Roger'
p5192
I3
sS'particular'
p5193
I1
sS'Kauffman'
p5194
I2
sS'town'
p5195
I3
sS'none'
p5196
I11
sS'Now'
p5197
I15
sS'hour'
p5198
I15
sS'recall'
p5199
I3
sS'created'
p5200
I5
sS'sucks'
p5201
I39
sS'Hamlet'
p5202
I1
sS'guards'
p5203
I1
sS'remain'
p5204
I1
sS'Wood'
p5205
I2
sS'abandon'
p5206
I1
sS'Plotless'
p5207
I1
sS'compare'
p5208
I5
sS'ELDERS'
p5209
I1
sS'share'
p5210
I3
sS'painfull'
p5211
I2
sS'"remake"'
p5212
I1
sS'numbers'
p5213
I2
sS'purchased'
p5214
I1
sS'Borscht'
p5215
I1
sS'!'
p5216
I724
sS'needs'
p5217
I12
sS'needy'
p5218
I1
sS'acts'
p5219
I2
sS'Carpenter'
p5220
I2
sS'sacred'
p5221
I1
sS'ensemble'
p5222
I2
sS'Easily'
p5223
I2
sS'Don'
p5224
I22
sS'Doo'
p5225
I1
sS'slow-mo'
p5226
I1
sS'craptastic'
p5227
I1
sS'List'
p5228
I1
sS'Dog'
p5229
I2
sS'intones'
p5230
I1
sS'spectacularly'
p5231
I2
sS'coming'
p5232
I4
sS'Kelly'
p5233
I2
sS'Lisa'
p5234
I1
sS'DULL'
p5235
I1
sS'coat'
p5236
I1
sS'doctor'
p5237
I1
sS'coal'
p5238
I1
sS'responsibility'
p5239
I1
sS'pay'
p5240
I6
sS'award-worthy'
p5241
I1
sS'gangster-type'
p5242
I1
sS'Pointless'
p5243
I3
sS'playing'
p5244
I9
sS'What'
p5245
I90
sS'EWWW'
p5246
I1
sS'Chalice'
p5247
I1
sS'appeals'
p5248
I1
sS'through'
p5249
I59
sS'predisposed'
p5250
I1
sS'existence'
p5251
I3
sS'suffer'
p5252
I1
sS'arrogant'
p5253
I2
sS'24'
p5254
I1
sS'25'
p5255
I5
sS'26'
p5256
I1
sS'comedic'
p5257
I1
sS'20'
p5258
I13
sS'21'
p5259
I2
sS'22'
p5260
I1
sS'28'
p5261
I1
sS'29'
p5262
I1
sS'handheld'
p5263
I1
sS'late'
p5264
I2
sS'Quest'
p5265
I1
sS'headache-inducing'
p5266
I1
sS'heartstopping'
p5267
I1
sS'worshiping'
p5268
I1
sS'dolls'
p5269
I2
sS'goof'
p5270
I1
sS'hurting'
p5271
I1
sS'good'
p5272
I172
sS'jeepers'
p5273
I1
sS'Bay'
p5274
I1
sS'Bad'
p5275
I18
sS'complain'
p5276
I1
sS'viewers'
p5277
I5
sS'mystery'
p5278
I3
sS'easily'
p5279
I8
sS'Saving'
p5280
I2
sS'Pseudo-Intelligentsia'
p5281
I1
sS'fantasy'
p5282
I2
sS'Potter'
p5283
I4
sS'goofy'
p5284
I1
sS'exiled'
p5285
I1
sS'repeating'
p5286
I1
sS'everyone'
p5287
I24
sS'mental'
p5288
I4
sS'house'
p5289
I7
sS'energy'
p5290
I4
sS'hard'
p5291
I20
sS'idea'
p5292
I39
sS'HULK'
p5293
I4
sS'engaging'
p5294
I1
sS'oil'
p5295
I1
sS'connect'
p5296
I1
sS'Crying'
p5297
I1
sS'lovers'
p5298
I2
sS'funding'
p5299
I1
sS'OSCAR'
p5300
I1
sS'childish'
p5301
I2
sS'numbingly'
p5302
I1
sS'tiresome'
p5303
I2
sS'Cool'
p5304
I1
sS'pathetic'
p5305
I22
sS'bulls'
p5306
I1
sS'members'
p5307
I2
sS'laughable'
p5308
I7
sS'beginning'
p5309
I15
sS'Yankees'
p5310
I1
sS'prophet'
p5311
I1
sS'needing'
p5312
I2
sS'intence'
p5313
I1
sS'Eb'
p5314
I1
sS'sarcasm'
p5315
I2
sS'Pullman'
p5316
I1
sS'Es'
p5317
I1
sS'dont'
p5318
I16
sS'mistakenly'
p5319
I1
sS'barbarian'
p5320
I1
sS'juncture'
p5321
I1
sS'Revolutions'
p5322
I2
sS'done'
p5323
I14
sS'Goes'
p5324
I1
sS'campground'
p5325
I1
sS'discernable'
p5326
I1
sS'Okay'
p5327
I2
sS'twenty'
p5328
I1
sS'HAYAK'
p5329
I1
sS'revive'
p5330
I1
sS'least'
p5331
I40
sS'paint'
p5332
I4
sS'180'
p5333
I1
sS'statement'
p5334
I6
sS'X2'
p5335
I1
sS'compromise'
p5336
I1
sS'Justin'
p5337
I4
sS'needle'
p5338
I1
sS'park'
p5339
I3
sS'part'
p5340
I41
sS'sold'
p5341
I3
sS'gruesome'
p5342
I1
sS'believe'
p5343
I46
sS'carnage'
p5344
I2
sS'john'
p5345
I2
sS'eraseres'
p5346
I1
sS'ACTRESS'
p5347
I1
sS'recording'
p5348
I1
sS'supposed'
p5349
I23
sS'sole'
p5350
I1
sS'treated'
p5351
I2
sS'declare'
p5352
I1
sS'SEAN'
p5353
I1
sS'Polaksky'
p5354
I1
sS'ages'
p5355
I1
sS'awoken'
p5356
I1
sS'categorized'
p5357
I1
sS'aged'
p5358
I1
sS'Troopers'
p5359
I2
sS'orders'
p5360
I1
sS'mountain'
p5361
I1
sS'built'
p5362
I1
sS'Power'
p5363
I1
sS'dancing'
p5364
I9
sS'bankrolls'
p5365
I1
sS'couch'
p5366
I1
sS'Arab'
p5367
I1
sS'majority'
p5368
I1
sS'build'
p5369
I2
sS'obviously'
p5370
I2
sS'commentary'
p5371
I1
sS'Episode'
p5372
I2
sS'BOMBED'
p5373
I1
sS'depths'
p5374
I1
sS'most'
p5375
I86
sS'highflyer'
p5376
I1
sS'charm'
p5377
I1
sS'significant'
p5378
I2
sS'lesbian-killer'
p5379
I1
sS'extremely'
p5380
I9
sS'Egypt'
p5381
I1
sS'storyline'
p5382
I22
sS'comdey'
p5383
I1
sS'sreenplay'
p5384
I1
sS'Armageddon'
p5385
I1
sS'consisted'
p5386
I1
sS'particularly'
p5387
I4
sS'rebels'
p5388
I1
sS'Bixby'
p5389
I1
sS'morons'
p5390
I1
sS'Hill'
p5391
I2
sS'fine'
p5392
I8
sS'find'
p5393
I34
sS'Poor'
p5394
I2
sS'giant'
p5395
I1
sS'depended'
p5396
I1
sS'ruin'
p5397
I3
sS'19th'
p5398
I1
sS'idiots'
p5399
I3
sS'sanitize'
p5400
I1
sS'dysfunctional'
p5401
I1
sS'8'
p5402
I8
sS'biddy'
p5403
I1
sS'ridcioulous'
p5404
I1
sS'Diesel'
p5405
I1
sS'express'
p5406
I3
sS'cheaper'
p5407
I1
sS'breast'
p5408
I1
sS'Paxton'
p5409
I1
sS'Stigmata'
p5410
I1
sS'frankly'
p5411
I4
sS'Suddenly'
p5412
I1
sS'Anyway'
p5413
I5
sS'coughs'
p5414
I1
sS'common'
p5415
I4
sS'contense'
p5416
I1
sS'restaurants'
p5417
I2
sS'cynical'
p5418
I3
sS'G-rated'
p5419
I2
sS'Scorpion'
p5420
I2
sS'individual'
p5421
I2
sS'SImply'
p5422
I1
sS'feared'
p5423
I1
sS'desires'
p5424
I1
sS'expert'
p5425
I1
sS'GET'
p5426
I1
sS'potrayal'
p5427
I1
sS'please'
p5428
I11
sS'fans'
p5429
I12
sS'Richards'
p5430
I1
sS'burned'
p5431
I1
sS'King'
p5432
I5
sS'Kind'
p5433
I1
sS'iron'
p5434
I1
sS'premise'
p5435
I8
sS'shaman'
p5436
I1
sS'asthma'
p5437
I1
sS'Makes'
p5438
I1
sS'marilyn'
p5439
I1
sS'pissed'
p5440
I4
sS'Thats'
p5441
I1
sS'restaurant'
p5442
I2
sS'Yea'
p5443
I3
sS'foreign'
p5444
I4
sS'X-Files'
p5445
I1
sS'alot'
p5446
I6
sS'Green'
p5447
I1
sS'Yes'
p5448
I9
sS'Yet'
p5449
I2
sS'point'
p5450
I30
sS'simple'
p5451
I5
sS'Hated'
p5452
I7
sS'fashion'
p5453
I3
sS'simply'
p5454
I19
sS'headachey'
p5455
I1
sS'Shroowoman'
p5456
I1
sS'throughout'
p5457
I10
sS'Disney'
p5458
I2
sS'Brothers'
p5459
I1
sS'create'
p5460
I4
sS'trilogy'
p5461
I3
sS'creativity'
p5462
I4
sS'secret'
p5463
I1
sS'pile'
p5464
I5
sS'Blech'
p5465
I2
sS'craweled'
p5466
I1
sS'Rork'
p5467
I1
sS'gay'
p5468
I3
sS'Casino'
p5469
I1
sS'Craven'
p5470
I2
sS'nihilistic'
p5471
I4
sS'35mm'
p5472
I1
sS'understand'
p5473
I21
sS'gag'
p5474
I1
sS'bile'
p5475
I1
sS'awfal'
p5476
I1
sS'raw'
p5477
I2
sS'solid'
p5478
I2
sS'bill'
p5479
I2
sS'holocaust'
p5480
I2
sS'sexuality'
p5481
I3
sS'College'
p5482
I1
sS'fun'
p5483
I19
sS'Khan'
p5484
I1
sS'century'
p5485
I1
sS'foul-mouthed'
p5486
I1
sS'itself'
p5487
I11
sS'zion'
p5488
I1
sS'Easter'
p5489
I2
sS'Pfieffer'
p5490
I1
sS'monroe'
p5491
I1
sS'Stupefying'
p5492
I1
sS'seduce'
p5493
I1
sS'butcher'
p5494
I1
sS'wherein'
p5495
I1
sS'moviegoing'
p5496
I1
sS'copying'
p5497
I1
sS'development'
p5498
I8
sS'brutalised'
p5499
I1
sS'husbands'
p5500
I1
sS'moment'
p5501
I7
sS'purpose'
p5502
I6
sS'Christian'
p5503
I5
sS'WHITE'
p5504
I1
sS'Coffin'
p5505
I1
sS'task'
p5506
I1
sS'Toole'
p5507
I1
sS'spent'
p5508
I14
sS'y'
p5509
I1
sS'chemistry'
p5510
I6
sS'spend'
p5511
I6
sS'grabage'
p5512
I1
sS'ludicrous'
p5513
I4
sS'distracting'
p5514
I3
sS'Ball'
p5515
I1
sS'jumpsuit'
p5516
I1
sS'letting'
p5517
I1
sS'superficial'
p5518
I1
sS'cut'
p5519
I7
sS'hated'
p5520
I32
sS'cuz'
p5521
I2
sS'Staar'
p5522
I1
sS'makers'
p5523
I8
sS'TURN'
p5524
I1
sS'cue'
p5525
I1
sS'Christopher'
p5526
I7
sS'dare'
p5527
I1
sS'Hindu'
p5528
I1
sS'Haunting'
p5529
I1
sS'Magnolia'
p5530
I1
sS'hates'
p5531
I7
sS'bin'
p5532
I3
sS'Sommers'
p5533
I1
sS'frustrate'
p5534
I1
sS'Did'
p5535
I9
sS'big'
p5536
I35
sS'Married'
p5537
I1
sS'YEAH'
p5538
I1
sS'judgement'
p5539
I1
sS'Cruel'
p5540
I2
sS'bit'
p5541
I14
sS'knock'
p5542
I2
sS'semi'
p5543
I1
sS'follows'
p5544
I4
sS'Whatever'
p5545
I2
sS'jolted'
p5546
I1
sS'foolish'
p5547
I1
sS'Redeeming'
p5548
I1
sS'prequels'
p5549
I1
sS'often'
p5550
I2
sS'humorous'
p5551
I2
sS'magnificent'
p5552
I1
sS'back'
p5553
I37
sS'extremist'
p5554
I1
sS'martial'
p5555
I1
sS'MUSICALS'
p5556
I1
sS'candle'
p5557
I1
sS'scale'
p5558
I1
sS'mean-sprited'
p5559
I1
sS'Brett'
p5560
I1
sS'Troy'
p5561
I2
sS'per'
p5562
I1
sS'pel'
p5563
I1
sS'pen'
p5564
I1
sS'Nothing'
p5565
I10
sS'pee'
p5566
I1
sS'epic'
p5567
I6
sS'laughing'
p5568
I7
sS'Boy'
p5569
I5
sS'patient'
p5570
I1
sS'oew'
p5571
I1
sS'costumes'
p5572
I2
sS'O'
p5573
I3
sS'David'
p5574
I3
sS'Bob'
p5575
I3
sS'optimize'
p5576
I1
sS'goods'
p5577
I1
sS'piles'
p5578
I2
sS'Glenn'
p5579
I1
sS'3-rd'
p5580
I1
sS'graduation'
p5581
I1
sS'drama'
p5582
I10
sS'ounce'
p5583
I1
sS'beans'
p5584
I1
sS'aliens'
p5585
I5
sS'Cinematography'
p5586
I2
sS'obscenely'
p5587
I1
sS'downhill'
p5588
I1
sS'modicum'
p5589
I2
sS'doll'
p5590
I1
sS'whpo'
p5591
I1
sS'forward'
p5592
I7
sS'translate'
p5593
I2
sS'Come'
p5594
I5
sS'COMITEE'
p5595
I1
sS'GAVE'
p5596
I1
sS'overstyled'
p5597
I1
sS'Brutal'
p5598
I1
sS'hopes'
p5599
I1
sS'directed'
p5600
I8
sS'originals'
p5601
I2
sS'historcally'
p5602
I1
sS'Doing'
p5603
I2
sS'planet'
p5604
I5
sS'BOOK'
p5605
I1
sS'directer'
p5606
I1
sS'Sense'
p5607
I1
sS'constant'
p5608
I1
sS'Perhaps'
p5609
I1
sS'metal'
p5610
I1
sS'anti-climactic'
p5611
I1
sS'single'
p5612
I7
sS'cure'
p5613
I2
sS'Linda'
p5614
I1
sS'dragging'
p5615
I1
sS'%'
p5616
I6
sS'May'
p5617
I2
sS'EVERYTHING'
p5618
I1
sS'Mad'
p5619
I4
sS'Trouble'
p5620
I1
sS'Extremely'
p5621
I1
sS'incidences'
p5622
I1
sS'Case'
p5623
I1
sS'Schnieder'
p5624
I1
sS'Geez'
p5625
I1
sS'favourite'
p5626
I2
sS'MONEY'
p5627
I4
sS'prepared'
p5628
I2
sS'burrning'
p5629
I1
sS'utterly'
p5630
I4
sS'andyrue'
p5631
I1
sS'sleazy-looking'
p5632
I1
sS'tank'
p5633
I1
sS'amused'
p5634
I2
sS'2002'
p5635
I1
sS'2003'
p5636
I3
sS'2000'
p5637
I2
sS'2001'
p5638
I5
sS'Asian'
p5639
I2
sS'Gofigure'
p5640
I1
sS'colonial'
p5641
I1
sS'portraying'
p5642
I2
sS'jason'
p5643
I9
sS'amplifies'
p5644
I1
sS'straightlaced'
p5645
I1
sS'SKYNET'
p5646
I1
sS'Neeson'
p5647
I2
sS'Someone'
p5648
I2
sS'drive-in'
p5649
I1
sS'Axelrod2003'
p5650
I1
sS'redemptive'
p5651
I1
sS'SUCKED'
p5652
I6
sS'putting'
p5653
I5
sS'implausible'
p5654
I2
sS'severely'
p5655
I1
sS'shock'
p5656
I4
sS'Defense'
p5657
I1
sS'kinsmen'
p5658
I2
sS'disemboweled'
p5659
I1
sS'havent'
p5660
I1
sS'Griffith'
p5661
I1
sS'Howard'
p5662
I2
sS'MOVIE'
p5663
I10
sS'Long'
p5664
I2
sS'uncomfortable'
p5665
I1
sS'earth'
p5666
I4
sS'3D'
p5667
I1
sS'WHAT'
p5668
I8
sS'giving'
p5669
I6
sS'destoyed'
p5670
I1
sS'Olivia'
p5671
I2
sS'Video'
p5672
I1
sS'exercise'
p5673
I3
sS'body'
p5674
I7
sS'Plumber'
p5675
I1
sS'Southerners'
p5676
I1
sS'exchange'
p5677
I1
sS'backstory'
p5678
I1
sS'sins'
p5679
I1
sS'arond'
p5680
I1
sS'packing'
p5681
I1
sS'objects'
p5682
I1
sS'IMAX'
p5683
I2
sS'others'
p5684
I13
sS'sing'
p5685
I6
sS'preamble'
p5686
I1
sS'irritating'
p5687
I6
sS'over-analyzers'
p5688
I1
sS'mindset'
p5689
I2
sS'39'
p5690
I1
sS'Nevada'
p5691
I1
sS'talent'
p5692
I12
sS'30'
p5693
I10
sS'36'
p5694
I1
sS'35'
p5695
I1
sS'Jennifer'
p5696
I7
sS'resurrect'
p5697
I1
sS'intoxcicated'
p5698
I1
sS'Gaul'
p5699
I1
sS'Big'
p5700
I1
sS'named'
p5701
I2
sS'crashing'
p5702
I2
sS'limp'
p5703
I2
sS'private'
p5704
I1
sS'Nick'
p5705
I2
sS'names'
p5706
I2
sS'composer'
p5707
I1
sS'sewers'
p5708
I1
sS'scandal'
p5709
I1
sS'sermon'
p5710
I1
sS'Nice'
p5711
I1
sS'tar'
p5712
I1
sS'Driver'
p5713
I1
sS'nobel'
p5714
I1
sS'asteroid'
p5715
I1
sS'Basically'
p5716
I3
sS'Statue'
p5717
I1
sS'Fi'
p5718
I1
sS'themselves'
p5719
I6
sS'oily'
p5720
I1
sS'train'
p5721
I1
sS'ashamed'
p5722
I7
sS'invasion'
p5723
I2
sS'Nash'
p5724
I1
sS'fooling'
p5725
I1
sS'f'
p5726
I5
sS'vaudeville'
p5727
I1
sS'one-'
p5728
I1
sS'unreal'
p5729
I2
sS'obvious'
p5730
I6
sS'praise'
p5731
I4
sS'Combining'
p5732
I1
sS'closing'
p5733
I2
sS'didnt'
p5734
I7
sS'Nicole'
p5735
I9
sS'Shining'
p5736
I1
sS'carwreck'
p5737
I1
sS'Jobeth'
p5738
I1
sS'proportions'
p5739
I2
sS'Townshend'
p5740
I1
sS'yurelf'
p5741
I1
sS'bones'
p5742
I1
sS'serial'
p5743
I1
sS'contempt'
p5744
I1
sS'three-layer'
p5745
I1
sS'Yo'
p5746
I1
sS'lame'
p5747
I20
sS'holds'
p5748
I2
sS'characters--black'
p5749
I1
sS'winners'
p5750
I1
sS'whatever-it-was'
p5751
I2
sS'stock'
p5752
I1
sS'buildings'
p5753
I1
sS'Larger'
p5754
I1
sS'Shades'
p5755
I1
sS'waters'
p5756
I1
sS'masterpieces'
p5757
I3
sS'bothered'
p5758
I1
sS'bevvy'
p5759
I1
sS'chasing'
p5760
I1
sS'Horrific'
p5761
I1
sS'Bullworth'
p5762
I1
sS'lines'
p5763
I12
sS'furious'
p5764
I1
sS'six'
p5765
I2
sS'horny'
p5766
I1
sS'bunch'
p5767
I16
sS'revived'
p5768
I1
sS'tsk'
p5769
I1
sS'la'
p5770
I1
sS'lo'
p5771
I1
sS'll'
p5772
I28
sS'winning'
p5773
I2
sS'Director'
p5774
I2
sS'heroism'
p5775
I1
sS'willing'
p5776
I3
sS'glossiest'
p5777
I1
sS'Achilles'
p5778
I1
sS'theology'
p5779
I1
sS'dad'
p5780
I1
sS'PEPPER'
p5781
I1
sS'descriptive'
p5782
I1
sS'dam'
p5783
I1
sS'muddle'
p5784
I1
sS'ACTOR'
p5785
I1
sS'mention'
p5786
I7
sS'cutting'
p5787
I1
sS'Robin'
p5788
I2
sS'FEEL'
p5789
I1
sS'warned'
p5790
I4
sS'Dicaprio'
p5791
I2
sS'cider'
p5792
I1
sS'overacts'
p5793
I1
sS'crudely'
p5794
I1
sS'slipping'
p5795
I1
sS'Gary'
p5796
I3
sS'uninteresting'
p5797
I6
sS'jockstrap'
p5798
I1
sS'ratings'
p5799
I2
sS'From'
p5800
I9
sS'apologize'
p5801
I1
sS'junkie'
p5802
I2
sS'sexual'
p5803
I7
sS'Occumm'
p5804
I1
sS'stur'
p5805
I1
sS'matt'
p5806
I1
sS'kids'
p5807
I15
sS'defend'
p5808
I1
sS'wholly'
p5809
I2
sS'scriptural'
p5810
I1
sS'math'
p5811
I2
sS'approached'
p5812
I1
sS'fourteen'
p5813
I1
sS'que'
p5814
I1
sS'bleed'
p5815
I1
sS'receipts'
p5816
I1
sS'interaction'
p5817
I1
sS'yard'
p5818
I1
sS'B-Movie'
p5819
I1
sS'automatic'
p5820
I1
sS'profanities'
p5821
I2
sS'discomfort'
p5822
I1
sS'south'
p5823
I1
sS'finest'
p5824
I2
sS'styling'
p5825
I1
sS'embarrassed'
p5826
I2
sS'reached'
p5827
I1
sS'ancient'
p5828
I3
sS'sadly'
p5829
I2
sS'monkey'
p5830
I1
sS'vulgar'
p5831
I3
sS'Wives'
p5832
I1
sS'regurgitate'
p5833
I1
sS'lions'
p5834
I1
sS'messing'
p5835
I1
sS'cabin'
p5836
I2
sS'gear'
p5837
I1
sS'no-where'
p5838
I1
sS'explanation'
p5839
I4
sS'nobody'
p5840
I2
sS'dreary'
p5841
I1
sS'negro'
p5842
I1
sS'Ye-Ha'
p5843
I1
sS'Cannes'
p5844
I1
sS'televison'
p5845
I1
sS'Reds'
p5846
I1
sS'loved'
p5847
I7
sS'slack'
p5848
I1
sS'Duchovney'
p5849
I1
sS'Universal'
p5850
I1
sS'occassions'
p5851
I1
sS'Thumbs'
p5852
I1
sS'loves'
p5853
I3
sS'lover'
p5854
I1
sS'Burton'
p5855
I3
sS'pretends'
p5856
I1
sS'Sutherland'
p5857
I1
sS'imaginative'
p5858
I1
sS'men-folk'
p5859
I1
sS'survives'
p5860
I1
sS'Pay'
p5861
I1
sS'horrendous'
p5862
I6
sS'have'
p5863
I341
sS'throat'
p5864
I2
sS'clunker'
p5865
I1
sS'demonstration'
p5866
I1
sS'Pam'
p5867
I2
sS'min'
p5868
I1
sS'mid'
p5869
I2
sS'mix'
p5870
I3
sS'psuedo-intellectual'
p5871
I1
sS'HOME'
p5872
I1
sS'Glad'
p5873
I1
sS'reciting'
p5874
I1
sS'Fantasyland'
p5875
I1
sS'unless'
p5876
I7
sS'Without'
p5877
I2
sS'eight'
p5878
I2
sS'strikes'
p5879
I1
sS'savaged'
p5880
I1
sS'herman'
p5881
I1
sS'RIGHT'
p5882
I1
sS'Witherspoon'
p5883
I1
sS'gather'
p5884
I1
sS'Some'
p5885
I4
sS'disease'
p5886
I2
sS'Donald'
p5887
I1
sS'absurd'
p5888
I3
sS'anti-American'
p5889
I1
sS'Russel'
p5890
I1
sS'Horror'
p5891
I7
sS'50-1'
p5892
I1
sS'selection'
p5893
I2
sS'retarted'
p5894
I1
sS'supported'
p5895
I3
sS'tearful'
p5896
I1
sS'wear'
p5897
I5
sS'grabbed'
p5898
I1
sS'loutish'
p5899
I1
sS'Moo'
p5900
I1
sS'York'
p5901
I2
sS'Jacob'
p5902
I1
sS'Homer'
p5903
I1
sS'beat'
p5904
I3
sS'bear'
p5905
I1
sS'ahting'
p5906
I1
sS'WELCOME'
p5907
I1
sS'calling'
p5908
I3
sS'Jeez'
p5909
I1
sS'gunman'
p5910
I1
sS'fixed'
p5911
I2
sS'national'
p5912
I1
sS'curiosity-since'
p5913
I1
sS'Passion'
p5914
I5
sS'watchfulness'
p5915
I1
sS'attempting'
p5916
I1
sS'Hatter'
p5917
I1
sS'Heston'
p5918
I1
sS'unbelieveable'
p5919
I1
sS'third-rate'
p5920
I1
sS'Kudos'
p5921
I1
sS'superior'
p5922
I1
sS'deliver'
p5923
I3
sS'batman'
p5924
I1
sS'S'
p5925
I1
sS'jackhammer'
p5926
I1
sS'Entirely'
p5927
I1
sS'pecent'
p5928
I1
sS'boloney'
p5929
I1
sS'instant'
p5930
I1
sS'joke'
p5931
I18
sS'taking'
p5932
I7
sS'equal'
p5933
I3
sS'pulp'
p5934
I1
sS'Beaver'
p5935
I1
sS'swallow'
p5936
I3
sS'otherwise'
p5937
I10
sS'comment'
p5938
I13
sS'relevant'
p5939
I1
sS'teasing'
p5940
I2
sS'bikini'
p5941
I1
sS'laugh'
p5942
I9
sS'Temple'
p5943
I1
sS'johnny'
p5944
I1
sS'tremendous'
p5945
I1
sS'copies'
p5946
I1
sS'devoting'
p5947
I1
sS'Llama'
p5948
I1
sS'upbeat'
p5949
I1
sS'copied'
p5950
I2
sS'cop'
p5951
I2
sS'hard-core'
p5952
I1
sS'caddy'
p5953
I1
sS'finished'
p5954
I3
sS'Honestly'
p5955
I2
sS'bull'
p5956
I4
sS'LITTLE'
p5957
I1
sS'Jamal'
p5958
I1
sS'bride-to-be'
p5959
I1
sS'LBJ'
p5960
I1
sS'vapid'
p5961
I2
sS'plain'
p5962
I18
sS'value'
p5963
I5
sS'promotes'
p5964
I3
sS'Clockwork'
p5965
I4
sS'non-zombie'
p5966
I1
sS'handwriting'
p5967
I1
sS'Blockbuster'
p5968
I2
sS'frustrating'
p5969
I1
sS'likable'
p5970
I3
sS'bicker'
p5971
I1
sS'almost'
p5972
I39
sS'blood'
p5973
I17
sS'helped'
p5974
I1
sS'claimed'
p5975
I3
sS'crash'
p5976
I2
sS'bloodless'
p5977
I1
sS'deber'
p5978
I1
sS'portray'
p5979
I3
sS'begining'
p5980
I4
sS'Return'
p5981
I2
sS'Garden'
p5982
I2
sS'GAY'
p5983
I2
sS')'
p5984
I171
sS'curiousity'
p5985
I1
sS'reporting'
p5986
I1
sS'II'
p5987
I5
sS'Dawn'
p5988
I5
sS'clips'
p5989
I1
sS'center'
p5990
I1
sS'weapon'
p5991
I2
sS'Christ"'
p5992
I1
sS'thought'
p5993
I59
sS'DareDevil'
p5994
I1
sS'sets'
p5995
I4
sS'position'
p5996
I2
sS'Total'
p5997
I2
sS'usual'
p5998
I7
sS'LOVED'
p5999
I1
sS'coaster'
p6000
I1
sS'barking'
p6001
I1
sS'humdrum'
p6002
I1
sS'DiCaprio'
p6003
I2
sS'domestic'
p6004
I1
sS'underlying'
p6005
I1
sS'seats'
p6006
I1
sS'tough'
p6007
I2
sS'abolish'
p6008
I1
sS'flashlight'
p6009
I2
sS'ads'
p6010
I2
sS'Friday'
p6011
I6
sS'Robots'
p6012
I1
sS'favorly'
p6013
I1
sS'add'
p6014
I7
sS'destroy'
p6015
I1
sS'ought'
p6016
I1
sS'incarnations'
p6017
I1
sS'Summer'
p6018
I1
sS're-arranged'
p6019
I1
sS'judiciary'
p6020
I1
sS'resolves'
p6021
I1
sS'Tarantino'
p6022
I2
sS'like'
p6023
I230
sS'excluding'
p6024
I1
sS'admitted'
p6025
I1
sS'chick'
p6026
I4
sS'works'
p6027
I4
sS'soft'
p6028
I1
sS'comprehension'
p6029
I1
sS'classical'
p6030
I3
sS'authority'
p6031
I2
sS'hair'
p6032
I3
sS'proper'
p6033
I2
sS'poseurs'
p6034
I1
sS'happens'
p6035
I7
sS'est'
p6036
I1
sS'unfunny'
p6037
I3
sS'masked'
p6038
I1
sS'assuming'
p6039
I1
sS'screwed'
p6040
I2
sS'regain'
p6041
I1
sS'SCARY'
p6042
I2
sS'thinly'
p6043
I1
sS'Heaven'
p6044
I2
sS'propably'
p6045
I1
sS'host'
p6046
I1
sS'although'
p6047
I6
sS'worthy'
p6048
I3
sS'appauled'
p6049
I1
sS'Arnie'
p6050
I1
sS'bizarre'
p6051
I1
sS'panel'
p6052
I1
sS'gifts'
p6053
I1
sS'about'
p6054
I204
sS'actual'
p6055
I7
sS'Raging'
p6056
I1
sS'certainty'
p6057
I1
sS'introduces'
p6058
I2
sS'Gadzooks'
p6059
I1
sS'Gale'
p6060
I1
sS'Japan'
p6061
I1
sS'miscast'
p6062
I3
sS'punchline'
p6063
I1
sS'childrens'
p6064
I1
sS'unimaginitive'
p6065
I1
sS'Two'
p6066
I3
sS'doesnt'
p6067
I1
sS'female'
p6068
I5
sS'1985'
p6069
I1
sS'legends'
p6070
I6
sS'1980'
p6071
I1
sS'rushed'
p6072
I1
sS'charisma'
p6073
I1
sS'1988'
p6074
I1
sS'awarded'
p6075
I1
sS'Child'
p6076
I3
sS'biggest'
p6077
I14
sS'Chill'
p6078
I1
sS'buy'
p6079
I8
sS'bus'
p6080
I5
sS'brand'
p6081
I1
sS'sequel'
p6082
I26
sS'but'
p6083
I346
sS'reminds'
p6084
I3
sS'plague'
p6085
I1
sS'bum'
p6086
I1
sS'editing'
p6087
I2
sS'bug'
p6088
I1
sS'partially'
p6089
I1
sS'Ive'
p6090
I1
sS'wise'
p6091
I2
sS'glory'
p6092
I2
sS'Wall'
p6093
I2
sS'wish'
p6094
I13
sS'Walt'
p6095
I1
sS'Crosby'
p6096
I2
sS'minutes'
p6097
I38
sS'zellweger'
p6098
I1
sS'deaths'
p6099
I11
sS'FREEDOM'
p6100
I1
sS'pic'
p6101
I1
sS'Excorsist'
p6102
I1
sS'periods'
p6103
I2
sS'shooting'
p6104
I2
sS'proceeds'
p6105
I1
sS'48'
p6106
I1
sS'dressed'
p6107
I1
sS'44'
p6108
I1
sS'45'
p6109
I2
sS'berating'
p6110
I1
sS'detail'
p6111
I2
sS'40'
p6112
I2
sS'badly-acted'
p6113
I1
sS'Know'
p6114
I1
sS'Altogether'
p6115
I1
sS'dresses'
p6116
I1
sS'variation'
p6117
I1
sS'Act'
p6118
I1
sS'christians'
p6119
I1
sS'oral'
p6120
I1
sS'Private'
p6121
I2
sS'yell'
p6122
I1
sS'pinchfaced'
p6123
I1
sS'8th'
p6124
I1
sS'limited'
p6125
I2
sS'LIFE'
p6126
I1
sS'two-dimensional'
p6127
I1
sS'Wonderous'
p6128
I1
sS'sleep'
p6129
I12
sS'Van'
p6130
I5
sS'Communist'
p6131
I1
sS'hate'
p6132
I35
sS'poorly'
p6133
I18
sS'crises'
p6134
I1
sS'MUCH'
p6135
I1
sS'whatsoever'
p6136
I9
sS'under'
p6137
I13
sS'@'
p6138
I1
sS'performs'
p6139
I1
sS'B-movie'
p6140
I1
sS'entertaing'
p6141
I1
sS'every'
p6142
I36
sS'jack'
p6143
I2
sS'GO'
p6144
I1
sS'monkeys'
p6145
I1
sS'encounter'
p6146
I1
sS'Origin'
p6147
I1
sS'school'
p6148
I10
sS'God-awful'
p6149
I1
sS'conceive'
p6150
I1
sS'venue'
p6151
I1
sS'Unable'
p6152
I1
sS'J-LO'
p6153
I1
sS'flashy'
p6154
I1
sS'soundtracks'
p6155
I1
sS'Go'
p6156
I4
sS'enjoy'
p6157
I18
sS'leaders'
p6158
I1
sS'Festival'
p6159
I1
sS'Nightmare'
p6160
I2
sS'guidelines'
p6161
I1
sS'feathers'
p6162
I2
sS'direct'
p6163
I2
sS'surrounding'
p6164
I1
sS'street'
p6165
I3
sS'AFRICAN'
p6166
I1
sS'blue'
p6167
I3
sS'hide'
p6168
I2
sS'Completley'
p6169
I1
sS'selected'
p6170
I1
sS'poison'
p6171
I1
sS'kicked'
p6172
I3
sS'orgies'
p6173
I1
sS'hundreds'
p6174
I3
sS'studio'
p6175
I2
sS'aftermath'
p6176
I1
sS'darkly'
p6177
I1
sS'Theres'
p6178
I1
sS'leaves'
p6179
I3
sS'changed'
p6180
I4
sS'Gangstas'
p6181
I1
sS'jogging'
p6182
I1
sS'changes'
p6183
I2
sS'punishment'
p6184
I3
sS'swearing'
p6185
I1
sS'Nemesis'
p6186
I1
sS'Giving'
p6187
I1
sS'iconoclasm'
p6188
I1
sS'Reloaded'
p6189
I2
sS'feelings'
p6190
I3
sS'patience'
p6191
I1
sS'Minority'
p6192
I1
sS'would'
p6193
I163
sS'hospital'
p6194
I2
sS'asses'
p6195
I1
sS'menopausal'
p6196
I1
sS'naive'
p6197
I1
sS'phony'
p6198
I4
sS'film-making'
p6199
I1
sS'nagging'
p6200
I1
sS'outdated'
p6201
I1
sS'must'
p6202
I25
sS'shoot'
p6203
I5
sS'Crazy'
p6204
I1
sS'join'
p6205
I2
sS'Crowe'
p6206
I1
sS'brandishing'
p6207
I1
sS'Poppins'
p6208
I1
sS'entertained'
p6209
I1
sS'my'
p6210
I201
sS'cussing'
p6211
I2
sS'culpability'
p6212
I1
sS'Jerry'
p6213
I4
sS'mayhem'
p6214
I1
sS'Lord'
p6215
I5
sS'times'
p6216
I19
sS'attract'
p6217
I1
sS'end'
p6218
I52
sS'supertrash'
p6219
I1
sS'ONE'
p6220
I2
sS'writers'
p6221
I6
sS'Jordan'
p6222
I1
sS'III'
p6223
I2
sS'redeming'
p6224
I1
sS'eyeballs'
p6225
I1
sS'Mariah'
p6226
I6
sS'badly'
p6227
I7
sS'WOULD'
p6228
I1
sS'claptrap'
p6229
I3
sS'mess'
p6230
I9
sS'protagonists'
p6231
I2
sS'delicacy'
p6232
I1
sS'"B"'
p6233
I1
sS'Can'
p6234
I9
sS'Dante'
p6235
I1
sS'hence'
p6236
I1
sS'jumping'
p6237
I3
sS'Wal-Mart"'
p6238
I1
sS'Japanese'
p6239
I3
sS'mucking'
p6240
I1
sS'ultimate'
p6241
I2
sS'suggest'
p6242
I2
sS'Beyond'
p6243
I1
sS'executed'
p6244
I5
sS'Hills'
p6245
I1
sS'Jurassic'
p6246
I1
sS'renne'
p6247
I1
sS'over'
p6248
I64
sS'fall'
p6249
I12
sS'becaus'
p6250
I1
sS'sickly'
p6251
I1
sS'synonyms'
p6252
I1
sS'oven'
p6253
I1
sS'strangle'
p6254
I3
sS'Urban'
p6255
I2
sS'hypocrisy'
p6256
I1
sS'expectations'
p6257
I4
sS'Here'
p6258
I4
sS'writing'
p6259
I8
sS'destroyed'
p6260
I6
sS'tramp'
p6261
I1
sS'compelling'
p6262
I2
sS'metality'
p6263
I1
sS'stifling'
p6264
I1
sS'Kids'
p6265
I2
sS'prevented'
p6266
I2
sS'misdirection'
p6267
I1
sS'Oldman'
p6268
I2
sS'rental'
p6269
I5
sS'30-year'
p6270
I1
sS'several'
p6271
I12
sS'Liberal'
p6272
I1
sS'ales'
p6273
I1
sS'each'
p6274
I10
sS'waving'
p6275
I1
sS'Elton'
p6276
I1
sS'Humor'
p6277
I1
sS'dorkass'
p6278
I1
sS'joined'
p6279
I1
sS'Anyone'
p6280
I11
sS'Carrey'
p6281
I2
sS'cuonfused'
p6282
I1
sS'driving'
p6283
I3
sS'dinosaur'
p6284
I3
sS'god'
p6285
I17
sS'psychic'
p6286
I2
sS'William'
p6287
I2
sS'laid'
p6288
I2
sS'banning'
p6289
I2
sS'got'
p6290
I65
sS'Junior'
p6291
I1
sS'Eeek'
p6292
I1
sS'Leatherface'
p6293
I1
sS'free'
p6294
I9
sS'masterpiece'
p6295
I3
sS'formation'
p6296
I1
sS'rain'
p6297
I1
sS'wanted'
p6298
I19
sS'pseudo-art'
p6299
I1
sS'BTW'
p6300
I1
sS'Chain'
p6301
I1
sS'Carri'
p6302
I1
sS'Vin'
p6303
I1
sS'days'
p6304
I11
sS'heck'
p6305
I4
sS'hopeless'
p6306
I2
sS'TIME'
p6307
I2
sS'onto'
p6308
I2
sS'already'
p6309
I20
sS'Working'
p6310
I1
sS'Gothika'
p6311
I1
sS'encouraging'
p6312
I1
sS'rank'
p6313
I1
sS'hearing'
p6314
I1
sS'rant'
p6315
I1
sS'grisley'
p6316
I1
sS'toy'
p6317
I1
sS'Congress'
p6318
I2
sS'Tasteless'
p6319
I1
sS'Academy'
p6320
I2
sS'top'
p6321
I11
sS'fiction'
p6322
I5
sS'too'
p6323
I90
sS'tom'
p6324
I3
sS'electocuting'
p6325
I1
sS'toe'
p6326
I1
sS'urban'
p6327
I5
sS'murder'
p6328
I3
sS'airwaves'
p6329
I1
sS'centered'
p6330
I1
sS'tool'
p6331
I1
sS'serve'
p6332
I1
sS'took'
p6333
I13
sS'Whoopdy'
p6334
I1
sS'STILL'
p6335
I1
sS'roles'
p6336
I7
sS'Salma'
p6337
I1
sS'bloated'
p6338
I1
sS'zero'
p6339
I2
sS'tourists'
p6340
I1
sS'classes'
p6341
I1
sS'revigorated'
p6342
I1
sS'10th'
p6343
I1
sS'Univ'
p6344
I1
sS'screenplay'
p6345
I5
sS'rag'
p6346
I1
sS'donkey'
p6347
I1
sS'1974'
p6348
I2
sS'Hitchens'
p6349
I1
sS'Gere'
p6350
I4
sS'ran'
p6351
I2
sS'Vampire'
p6352
I1
sS'talking'
p6353
I9
sS'rat'
p6354
I2
sS'rap'
p6355
I3
sS'ray'
p6356
I1
sS'1964'
p6357
I1
sS'thoroughly'
p6358
I1
sS'-'
p6359
I62
sS'laughed'
p6360
I16
sS'yucky'
p6361
I2
sS'CAME'
p6362
I1
sS'though'
p6363
I41
sS'plenty'
p6364
I2
sS'x'
p6365
I1
sS'prostitute'
p6366
I1
sS'reenfirced'
p6367
I1
sS'flop'
p6368
I3
sS'flow'
p6369
I1
sS'reputation'
p6370
I1
sS'entertaining'
p6371
I8
sS'Its'
p6372
I9
sS'NICE'
p6373
I1
sS'saga'
p6374
I2
sS'wrong--this'
p6375
I1
sS'radio'
p6376
I1
sS'musicals'
p6377
I3
sS'self-indulgent'
p6378
I2
sS'situations'
p6379
I2
sS'afterbirth'
p6380
I1
sS'announce'
p6381
I1
sS'Brucie'
p6382
I1
sS'mixture'
p6383
I1
sS'uhhh'
p6384
I1
sS'watch'
p6385
I89
sS'geek'
p6386
I1
sS'despite'
p6387
I5
sS'knocks'
p6388
I1
sS'overbearing'
p6389
I1
sS'Moore'
p6390
I5
sS'Nowwwwwww'
p6391
I1
sS'goodbyes'
p6392
I1
sS'assualted'
p6393
I1
sS'idiotic'
p6394
I5
sS'public'
p6395
I7
sS'twice'
p6396
I6
sS'interspersed'
p6397
I1
sS'shots'
p6398
I5
sS'ruins'
p6399
I1
sS'Glen'
p6400
I1
sS'Infinitely'
p6401
I1
sS'nut'
p6402
I2
sS'corrupt'
p6403
I2
sS'disturbing'
p6404
I7
sS'SUCK'
p6405
I1
sS'screeching'
p6406
I1
sS'capacity'
p6407
I1
sS'mud'
p6408
I1
sS'hopefully'
p6409
I1
sS'approach'
p6410
I2
sS'pee-wee'
p6411
I1
sS'Trek'
p6412
I20
sS'LOVE'
p6413
I1
sS'Annoyer'
p6414
I1
sS'weak'
p6415
I9
sS'however'
p6416
I5
sS'nightmares'
p6417
I1
sS'devout'
p6418
I1
sS'news'
p6419
I1
sS'faced'
p6420
I1
sS'tushy'
p6421
I1
sS'participating'
p6422
I1
sS'players'
p6423
I1
sS'Computer'
p6424
I1
sS'games'
p6425
I5
sS'faces'
p6426
I3
sS'hypocrites'
p6427
I2
sS'expense'
p6428
I2
sS'GIVE'
p6429
I1
sS'defiantely'
p6430
I1
sS'maudlin'
p6431
I1
sS'trust'
p6432
I3
sS'comical'
p6433
I1
sS'bathroom'
p6434
I2
sS'Lambert'
p6435
I1
sS'Southern'
p6436
I1
sS'been'
p6437
I86
sS'quickly'
p6438
I4
sS'beer'
p6439
I1
sS'belongs'
p6440
I2
sS'WERE'
p6441
I1
sS'expected'
p6442
I13
sS'captives'
p6443
I2
sS'Adams'
p6444
I1
sS'drugs'
p6445
I1
sS'Cry'
p6446
I1
sS'catch'
p6447
I4
sS'Shakespere'
p6448
I1
sS'n'
p6449
I1
sS'Gosford'
p6450
I1
sS'weren'
p6451
I11
sS'natives'
p6452
I1
sS'Gross'
p6453
I3
sS'Ellis'
p6454
I1
sS'forgetable'
p6455
I1
sS'anthropomorphizing'
p6456
I1
sS'rapper'
p6457
I1
sS'Bush'
p6458
I3
sS'haunts'
p6459
I1
sS'brutal'
p6460
I1
sS'HOPEFULLY'
p6461
I1
sS'Mena'
p6462
I1
sS'salacious'
p6463
I1
sS'Dracula'
p6464
I6
sS'complex'
p6465
I1
sS'reffering'
p6466
I1
sS'leftist'
p6467
I1
sS'Maguire'
p6468
I1
sS'pick'
p6469
I5
sS'characters'
p6470
I54
sS'mentions'
p6471
I1
sS'workings'
p6472
I1
sS'tyson'
p6473
I1
sS'mentioning'
p6474
I1
sS'Twinkies'
p6475
I1
sS'narrow'
p6476
I1
sS'possessed'
p6477
I2
sS'GIFTED'
p6478
I1
sS'greatest'
p6479
I8
sS'mother'
p6480
I7
sS'hearts'
p6481
I1
sS'dads'
p6482
I1
sS'After'
p6483
I16
sS'Lots'
p6484
I1
sS'laptop'
p6485
I1
sS'starting'
p6486
I2
sS'grader'
p6487
I1
sS'bugged'
p6488
I1
sS'thumbs'
p6489
I1
sS'elm'
p6490
I1
sS'pitiful'
p6491
I1
sS'humanity'
p6492
I3
sS'gave'
p6493
I19
sS'actresses'
p6494
I6
sS'casting'
p6495
I5
sS'D'
p6496
I3
sS'James'
p6497
I2
sS'breaks'
p6498
I2
sS'right-wing'
p6499
I1
sS'cultural'
p6500
I1
sS'GODAWFUL'
p6501
I1
sS'judge'
p6502
I1
sS'burns'
p6503
I1
sS'apart'
p6504
I2
sS'Heart'
p6505
I2
sS'brutality'
p6506
I1
sS'gifted'
p6507
I1
sS'dishonest'
p6508
I3
sS'50'
p6509
I6
sS'hunk'
p6510
I1
sS'overrated'
p6511
I25
sS'hung'
p6512
I1
sS'MacGuire'
p6513
I1
sS'stereotype'
p6514
I1
sS'Herve'
p6515
I1
sS'Much'
p6516
I2
sS'displeasure'
p6517
I1
sS'escape'
p6518
I2
sS'smarmy'
p6519
I1
sS'HA'
p6520
I33
sS'HE'
p6521
I2
sS'Life'
p6522
I2
sS'totaly'
p6523
I2
sS'somnelescence'
p6524
I1
sS'ice'
p6525
I2
sS'everything'
p6526
I15
sS'intolerant'
p6527
I1
sS'Ha'
p6528
I1
sS'christmas'
p6529
I1
sS'He'
p6530
I31
sS'corn'
p6531
I1
sS'disappeared'
p6532
I3
sS'discount'
p6533
I1
sS'tediouse'
p6534
I1
sS'Emperor'
p6535
I3
sS'plug'
p6536
I1
sS'Fair'
p6537
I1
sS'attacks'
p6538
I1
sS'choke'
p6539
I1
sS'surround'
p6540
I1
sS'dinner'
p6541
I1
sS'plus'
p6542
I2
sS'Still'
p6543
I4
sS'Best'
p6544
I3
sS'face-in-the-water'
p6545
I1
sS'primitive'
p6546
I1
sS'presence'
p6547
I3
sS'ppl'
p6548
I1
sS'over-acted'
p6549
I1
sS'dissenting'
p6550
I1
sS'Martha'
p6551
I1
sS'rounds'
p6552
I1
sS'FREAKING'
p6553
I1
sS'Tedium'
p6554
I1
sS'existed'
p6555
I1
sS'unfocused'
p6556
I1
sS'sunlight'
p6557
I1
sS'class'
p6558
I5
sS'Fellini'
p6559
I1
sS'virgin'
p6560
I1
sS'extrememly'
p6561
I1
sS'purposely'
p6562
I1
sS'head'
p6563
I15
sS'successfully'
p6564
I1
sS'Rocky'
p6565
I2
sS'abysmal'
p6566
I1
sS'heal'
p6567
I1
sS'gorgeous'
p6568
I1
sS'discourage'
p6569
I1
sS'hear'
p6570
I8
sS'heap'
p6571
I1
sS'tacky'
p6572
I1
sS'removed'
p6573
I2
sS'humiliate'
p6574
I1
sS'portions'
p6575
I3
sS'amature'
p6576
I1
sS'versions'
p6577
I2
sS'heartwarming'
p6578
I1
sS'Gratuitous'
p6579
I1
sS'bargain'
p6580
I2
sS'ruined'
p6581
I9
sS'paging'
p6582
I1
sS'cinimatic'
p6583
I1
sS'Hudson'
p6584
I2
sS'Amistad'
p6585
I1
sS'shiney'
p6586
I1
sS'LOYAL'
p6587
I1
sS'sometime'
p6588
I2
sS'acclaimed'
p6589
I1
sS'believable'
p6590
I7
sS'annoying'
p6591
I21
sS'check'
p6592
I3
sS'looked'
p6593
I15
sS'Monster'
p6594
I1
sS'no'
p6595
I159
sS'when'
p6596
I99
sS'til'
p6597
I2
sS'tin'
p6598
I1
sS'setting'
p6599
I2
sS'portrayals'
p6600
I1
sS'tie'
p6601
I1
sS'nt'
p6602
I3
sS'eternity'
p6603
I2
sS'picture'
p6604
I22
sS'EST'
p6605
I1
sS'dericting'
p6606
I1
sS'trailers'
p6607
I3
sS'Earth'
p6608
I4
sS'Lee'
p6609
I4
sS'younger'
p6610
I4
sS'longer'
p6611
I2
sS'bullet'
p6612
I1
sS'1800'
p6613
I1
sS'time-travel'
p6614
I1
sS'serious'
p6615
I7
sS'Drove'
p6616
I1
sS'haveing'
p6617
I1
sS'Tsk'
p6618
I1
sS'remarkable'
p6619
I3
sS'impression'
p6620
I3
sS'rob'
p6621
I1
sS'Mitzi'
p6622
I1
sS'focus'
p6623
I5
sS'leads'
p6624
I4
sS'MOSNTERS'
p6625
I1
sS'comments'
p6626
I3
sS'empathize'
p6627
I1
sS'row'
p6628
I1
sS'Dad'
p6629
I1
sS'tourchure'
p6630
I1
sS'Spoilers'
p6631
I1
sS'1940'
p6632
I1
sS'Smithsonian'
p6633
I1
sS'Truly'
p6634
I8
sS'charge'
p6635
I1
sS'asking'
p6636
I1
sS'Boredom'
p6637
I1
sS'Day'
p6638
I8
sS'abomanation'
p6639
I1
sS'sequal'
p6640
I2
sS'sloppy'
p6641
I1
sS'Creepers'
p6642
I1
sS'masturbate'
p6643
I1
sS'feel-good'
p6644
I1
sS'cook'
p6645
I1
sS'cool'
p6646
I20
sS'impressive'
p6647
I4
sS'best-'
p6648
I1
sS'level'
p6649
I1
sS'brother'
p6650
I2
sS'standards'
p6651
I3
sS'so-bad-it'
p6652
I1
sS'quick'
p6653
I3
sS'kING'
p6654
I1
sS'says'
p6655
I13
sS'porn'
p6656
I4
sS'trend'
p6657
I3
sS'Denise'
p6658
I1
sS'sensationalism'
p6659
I1
sS'Jane'
p6660
I1
sS'chicken'
p6661
I1
sS'distaste'
p6662
I1
sS'Theatre'
p6663
I1
sS'Burkittsville'
p6664
I1
sS'solemate'
p6665
I1
sS'goes'
p6666
I19
sS'Reeves'
p6667
I4
sS'529'
p6668
I1
sS'llocks'
p6669
I1
sS'4Ever'
p6670
I1
sS'catchprase-originating'
p6671
I1
sS'WGA'
p6672
I1
sS'Hopkins'
p6673
I1
sS'Stupidest'
p6674
I1
sS'learn'
p6675
I6
sS'slackers'
p6676
I1
sS'water'
p6677
I9
sS'"Huh'
p6678
I1
sS'entertain'
p6679
I1
sS'witch'
p6680
I8
sS'['
p6681
I6
sS'fancy-pants'
p6682
I1
sS'shove'
p6683
I1
sS'guilty'
p6684
I2
sS'proud'
p6685
I2
sS'prude'
p6686
I1
sS'weird'
p6687
I8
sS'sleak'
p6688
I1
sS'morals'
p6689
I2
sS'Ariel'
p6690
I1
sS'Catholicism'
p6691
I2
sS'dissapointment'
p6692
I2
sS'1st'
p6693
I2
sS'crisis'
p6694
I2
sS'ipecac'
p6695
I1
sS'vivid'
p6696
I1
sS'wrecking'
p6697
I1
sS'hidious'
p6698
I1
sS'sports'
p6699
I1
sS'msn'
p6700
I1
sS'upheld'
p6701
I1
sS'reductive'
p6702
I1
sS'gravely'
p6703
I2
sS'Juilet'
p6704
I1
sS'today'
p6705
I9
sS'immitate'
p6706
I1
sS'chapter'
p6707
I1
sS'pseudo-historical'
p6708
I1
sS'clicking'
p6709
I1
sS'Eva'
p6710
I1
sS'demonized'
p6711
I1
sS'drown'
p6712
I1
sS'dismal'
p6713
I1
sS'demonizes'
p6714
I1
sS'movie-going'
p6715
I1
sS'local'
p6716
I6
sS'PLEASE'
p6717
I2
sS'stinkorama'
p6718
I1
sS'minimum'
p6719
I1
sS'laughter'
p6720
I1
sS'slightest'
p6721
I4
sS'overpass'
p6722
I1
sS'figure'
p6723
I9
sS'downfall'
p6724
I1
sS'critic'
p6725
I1
sS'dropped'
p6726
I5
sS'KUBRICK'
p6727
I1
sS'Noble'
p6728
I1
sS'Blacula'
p6729
I1
sS'1'
p6730
I33
sS'eeevil'
p6731
I1
sS'dope'
p6732
I1
sS'unbelievable'
p6733
I8
sS'Natalie'
p6734
I3
sS'information'
p6735
I2
sS'clone'
p6736
I1
sS'Ugly'
p6737
I1
sS'tipped'
p6738
I1
sS'Maryland'
p6739
I3
sS'unbelievably'
p6740
I3
sS'Banderas'
p6741
I2
sS'syndicated'
p6742
I1
sS'representation'
p6743
I1
sS'refund'
p6744
I1
sS'NaturallyYou'
p6745
I1
sS'Satanist'
p6746
I1
sS'mainly'
p6747
I4
sS'accolades'
p6748
I2
sS'AHHHHHHHHHHHHHHHHH'
p6749
I1
sS'White'
p6750
I8
sS'worship'
p6751
I1
sS'FILM'
p6752
I1
sS'blocked'
p6753
I1
sS'apes'
p6754
I1
sS'Rules'
p6755
I1
sS'civic'
p6756
I1
sS'waterpistols'
p6757
I1
sS'Wesley'
p6758
I1
sS'offers'
p6759
I2
sS'Effects'
p6760
I1
sS'Using'
p6761
I1
sS'hanks'
p6762
I1
sS'Make'
p6763
I1
sS'happened'
p6764
I19
sS'Stereo'
p6765
I1
sS'freagin'
p6766
I1
sS'Cable'
p6767
I1
sS'Rome'
p6768
I1
sS'feature'
p6769
I5
sS'aaaahhhhhhh'
p6770
I1
sS'wagon'
p6771
I1
sS'execute'
p6772
I1
sS'name'
p6773
I12
sS'Mucus'
p6774
I1
sS'terd'
p6775
I1
sS'realistic'
p6776
I4
sS'nodding'
p6777
I1
sS'realism'
p6778
I1
sS'wearisome'
p6779
I1
sS'Crapola'
p6780
I1
sS'at-times'
p6781
I1
sS'plant'
p6782
I1
sS'gaps'
p6783
I1
sS'begun'
p6784
I2
sS'Save'
p6785
I2
sS'obsession'
p6786
I2
sS'plans'
p6787
I1
sS'Spielberg'
p6788
I11
sS'MADE'
p6789
I1
sS'concur'
p6790
I1
sS'Shakespearian'
p6791
I1
sS'factors'
p6792
I1
sS'advice'
p6793
I1
sS'psychos'
p6794
I1
sS'attended'
p6795
I1
sS'theory'
p6796
I5
sS'satanic'
p6797
I1
sS'boobs'
p6798
I1
sS'Yorkie'
p6799
I2
sS'hulk'
p6800
I1
sS'previews'
p6801
I5
sS'F13'
p6802
I1
sS'Godspell'
p6803
I1
sS'miss'
p6804
I3
sS'motion'
p6805
I4
sS'turn'
p6806
I15
sS'place'
p6807
I14
sS'swing'
p6808
I1
sS'factor-'
p6809
I1
sS'turd'
p6810
I2
sS'childhood'
p6811
I1
sS'uninspired'
p6812
I4
sS'symbolic'
p6813
I2
sS'clumsy'
p6814
I1
sS'handled'
p6815
I1
sS'Stars'
p6816
I2
sS'millions'
p6817
I2
sS'rented'
p6818
I9
sS'given'
p6819
I14
sS'necessarily'
p6820
I1
sS'stuck'
p6821
I2
sS'plastic'
p6822
I4
sS'SEE'
p6823
I4
sS'conservation'
p6824
I1
sS'terrifying'
p6825
I1
sS'white'
p6826
I11
sS'gives'
p6827
I7
sS'face-in-the-sand'
p6828
I1
sS'six-pack'
p6829
I2
sS'F-Word'
p6830
I1
sS'Bruckheimer'
p6831
I2
sS'huh'
p6832
I1
sS'stylized'
p6833
I1
sS'released'
p6834
I2
sS'alas'
p6835
I1
sS'Enterprise'
p6836
I2
sS'ill-advised'
p6837
I1
sS'copy'
p6838
I10
sS'Tuna'
p6839
I1
sS'population'
p6840
I1
sS'Battlefield'
p6841
I2
sS'Love'
p6842
I6
sS'unfortunately'
p6843
I1
sS'r'
p6844
I1
sS'cards'
p6845
I2
sS'dissapointed'
p6846
I3
sS'DOWNER'
p6847
I1
sS'and'
p6848
I1317
sS'Clint'
p6849
I1
sS'pro'
p6850
I1
sS'taseless'
p6851
I1
sS'stiffest'
p6852
I1
sS'suspense'
p6853
I8
sS'rent'
p6854
I15
sS'manupulative'
p6855
I1
sS'tylenol'
p6856
I1
sS'any'
p6857
I82
sS'calisthenics'
p6858
I1
sS'ideas'
p6859
I5
sS'animation'
p6860
I1
sS'urge'
p6861
I2
sS'sure'
p6862
I20
sS'multiple'
p6863
I1
sS'Angst'
p6864
I1
sS'GOD'
p6865
I3
sS'Didn'
p6866
I2
sS'falls'
p6867
I2
sS'Heartbeat'
p6868
I1
sS'overlooked'
p6869
I1
sS'definatly'
p6870
I2
sS'TURKEY'
p6871
I2
sS'Whoever'
p6872
I1
sS'considered'
p6873
I11
sS'shooter'
p6874
I1
sS'X-File'
p6875
I1
sS'Jarring'
p6876
I1
sS'uncle'
p6877
I1
sS'senior'
p6878
I1
sS'cheap'
p6879
I15
sS'-----Ohio'
p6880
I1
sS'Saddam'
p6881
I1
sS'state'
p6882
I2
sS'crime'
p6883
I2
sS'believing'
p6884
I4
sS'poonessity'
p6885
I1
sS'sappiness'
p6886
I1
sS'H'
p6887
I1
sS'horrible'
p6888
I73
sS'begging'
p6889
I1
sS'lighter'
p6890
I1
sS'installed'
p6891
I1
sS'Similar'
p6892
I1
sS'cautionary'
p6893
I1
sS'freaking'
p6894
I2
sS'regarding'
p6895
I1
sS'unorignal'
p6896
I2
sS'Jedi'
p6897
I1
sS'doo-dad'
p6898
I1
sS'denouement'
p6899
I1
sS'jokes'
p6900
I5
sS'clowns'
p6901
I1
sS'Ripoff'
p6902
I1
sS'believeable'
p6903
I1
sS'Colonel'
p6904
I1
sS'Bite'
p6905
I1
sS'psychopaths'
p6906
I1
sS'connections'
p6907
I1
sS'college'
p6908
I3
sS'slashing'
p6909
I1
sS'ignores'
p6910
I1
sS'Snipes'
p6911
I1
sS'Voyager'
p6912
I1
sS'fails'
p6913
I5
sS'detect'
p6914
I1
sS'voluntary'
p6915
I1
sS'ways'
p6916
I3
sS'subsequent'
p6917
I1
sS'review'
p6918
I10
sS'weapons'
p6919
I2
sS'outside'
p6920
I3
sS'Texas'
p6921
I6
sS'surfaced'
p6922
I1
sS'unappealing'
p6923
I1
sS'Frampton'
p6924
I2
sS'originated'
p6925
I1
sS'adpatations'
p6926
I1
sS'coma'
p6927
I2
sS'come'
p6928
I26
sS'successes'
p6929
I1
sS'stupidest'
p6930
I8
sS'Droppings'
p6931
I1
sS'DONT'
p6932
I1
sS'leftists'
p6933
I1
sS'berry'
p6934
I1
sS'Goodfellas'
p6935
I1
sS'duty'
p6936
I2
sS'color'
p6937
I1
sS'pot'
p6938
I1
sS'por'
p6939
I1
sS'period'
p6940
I1
sS'pop'
p6941
I4
sS'60'
p6942
I2
sS'poo'
p6943
I9
sS'pole'
p6944
I1
sS'atrociously'
p6945
I1
sS'65'
p6946
I1
sS'babbling'
p6947
I1
sS'endeavor'
p6948
I1
sS'Thrill-less'
p6949
I1
sS'turkey'
p6950
I5
sS'Beauty'
p6951
I3
sS'filmmakers'
p6952
I3
sS'Ryders'
p6953
I1
sS'But'
p6954
I41
sS'subscribes'
p6955
I1
sS'believable-'
p6956
I1
sS'Slater'
p6957
I1
sS'featuring'
p6958
I2
sS'hardly'
p6959
I8
sS'direction'
p6960
I9
sS'tasteless'
p6961
I2
sS'robbed'
p6962
I3
sS'designed'
p6963
I1
sS'Together'
p6964
I2
sS'coherently'
p6965
I1
sS'WAY'
p6966
I4
sS'Barbara'
p6967
I1
sS'dribble'
p6968
I1
sS'case'
p6969
I4
sS'myself'
p6970
I21
sS'cash'
p6971
I5
sS'arnold'
p6972
I1
sS'cast'
p6973
I22
sS'Colors'
p6974
I1
sS'dorks'
p6975
I1
sS'Lauren'
p6976
I1
sS'50s'
p6977
I1
sS'Slow'
p6978
I1
sS'sub-par'
p6979
I1
sS'someone'
p6980
I29
sS'BEEN'
p6981
I1
sS'ironic'
p6982
I1
sS'author'
p6983
I1
sS'BLASPHEMY'
p6984
I1
sS'seeking'
p6985
I1
sS'reminded'
p6986
I2
sS'trip'
p6987
I3
sS'Leguizamo'
p6988
I1
sS'html'
p6989
I2
sS'reminder'
p6990
I1
sS'events'
p6991
I2
sS'moronic'
p6992
I8
sS'hermit'
p6993
I3
sS'week'
p6994
I5
sS'IX'
p6995
I1
sS'Jodie'
p6996
I2
sS'mockery'
p6997
I1
sS'IQ'
p6998
I3
sS'IS'
p6999
I8
sS'driver'
p7000
I1
sS'IT'
p7001
I14
sS'IV'
p7002
I1
sS'producers'
p7003
I5
sS'devoid'
p7004
I3
sS'drivel'
p7005
I5
sS'canister'
p7006
I1
sS'IM'
p7007
I1
sS'Dread'
p7008
I1
sS'statue'
p7009
I1
sS'IN'
p7010
I6
sS'Dream'
p7011
I1
sS'cartoon'
p7012
I3
sS'faithful'
p7013
I1
sS'relies'
p7014
I2
sS'Made'
p7015
I2
sS'Is'
p7016
I11
sS'eerie'
p7017
I1
sS'It'
p7018
I276
sS'without'
p7019
I25
sS'Im'
p7020
I2
sS'tload'
p7021
I1
sS'components'
p7022
I1
sS'In'
p7023
I29
sS'model'
p7024
I1
sS'hysteria'
p7025
I1
sS'bodies'
p7026
I3
sS'justify'
p7027
I1
sS'Pink'
p7028
I1
sS'trology'
p7029
I1
sS'United'
p7030
I1
sS'plotline'
p7031
I4
sS'tip'
p7032
I1
sS'actions'
p7033
I1
sS'violent'
p7034
I7
sS'kill'
p7035
I23
sS'goriest'
p7036
I1
sS'captured'
p7037
I2
sS'halfway'
p7038
I2
sS'blow'
p7039
I3
sS'pornograhpy'
p7040
I1
sS'seems'
p7041
I20
sS'except'
p7042
I20
sS'lets'
p7043
I2
sS'Pothead'
p7044
I1
sS'scheduled'
p7045
I1
sS'Kiefer'
p7046
I1
sS'kills'
p7047
I9
sS'philisophical'
p7048
I1
sS'Many'
p7049
I1
sS'Terrible'
p7050
I18
sS'Terribly'
p7051
I4
sS'geriatrics'
p7052
I1
sS'accepted'
p7053
I1
sS'Talk'
p7054
I4
sS'AIDS-infected'
p7055
I1
sS'snore'
p7056
I2
sS'Bravo'
p7057
I1
sS'buddies'
p7058
I1
sS'Pig'
p7059
I1
sS'Something'
p7060
I2
sS'substandard'
p7061
I1
sS'Mawkish'
p7062
I1
sS'joking'
p7063
I1
sS'West'
p7064
I2
sS'Since'
p7065
I3
sS'shortcoming'
p7066
I1
sS'snatched'
p7067
I1
sS'respect'
p7068
I11
sS'redeeming'
p7069
I12
sS'Danish'
p7070
I2
sS'mood'
p7071
I4
sS'prolific'
p7072
I1
sS'Crouching'
p7073
I1
sS'teachings'
p7074
I3
sS'fables'
p7075
I1
sS'lesser-talented'
p7076
I1
sS'nails'
p7077
I3
sS'TRY'
p7078
I1
sS'Oswald'
p7079
I2
sS'terrified'
p7080
I2
sS'stereotypes'
p7081
I3
sS'on'
p7082
I306
sS'ol'
p7083
I2
sS'ok'
p7084
I4
sS'oh'
p7085
I13
sS'of'
p7086
I1285
sS'od'
p7087
I1
sS'creepers'
p7088
I1
sS'stand'
p7089
I11
sS'oy'
p7090
I1
sS'Goebbels'
p7091
I1
sS'or'
p7092
I162
sS'exept'
p7093
I1
sS'"Rosemary'
p7094
I1
sS'garner'
p7095
I1
sS'Arkansas'
p7096
I1
sS'determine'
p7097
I1
sS'Beatles'
p7098
I6
sS'strictly'
p7099
I1
sS'there'
p7100
I101
sS'racism'
p7101
I2
sS'racist'
p7102
I5
sS'fastball'
p7103
I1
sS'Remember'
p7104
I2
sS'jus'
p7105
I1
sS'garnered'
p7106
I1
sS'Marvel'
p7107
I1
sS'Whoops'
p7108
I1
sS'self-interested'
p7109
I1
sS'FBI'
p7110
I2
sS'Special'
p7111
I3
sS'mongoloid'
p7112
I1
sS'toilet'
p7113
I3
sS'Space'
p7114
I4
sS'taste'
p7115
I7
sS'Mission'
p7116
I3
sS'intro'
p7117
I1
sS'Mottola'
p7118
I1
sS'politics'
p7119
I5
sS'Kristinand'
p7120
I1
sS'idiot'
p7121
I8
sS'deserve'
p7122
I4
sS'SGT'
p7123
I1
sS'Dark'
p7124
I3
sS'5'
p7125
I14
sS'trash'
p7126
I16
sS'embattled'
p7127
I1
sS'Deftones'
p7128
I1
sS'Boring'
p7129
I13
sS'symbol'
p7130
I1
sS'finale'
p7131
I1
sS'includes'
p7132
I2
sS'STARS'
p7133
I1
sS'included'
p7134
I1
sS'stocks'
p7135
I1
sS'Honeyman-Pinhead'
p7136
I1
sS'wife'
p7137
I13
sS'invest'
p7138
I1
sS'uglier'
p7139
I1
sS'Blah'
p7140
I4
sS'directors'
p7141
I3
sS'songs'
p7142
I5
sS'Ravolta'
p7143
I2
sS'talentless'
p7144
I1
sS'all'
p7145
I248
sS'ali'
p7146
I1
sS'stlye'
p7147
I1
sS'lack'
p7148
I6
sS'ala'
p7149
I1
sS'surgical'
p7150
I1
sS'follow'
p7151
I5
sS'realesed'
p7152
I1
sS'decisions'
p7153
I1
sS'glimpse'
p7154
I1
sS'DESERVED'
p7155
I1
sS'subjected'
p7156
I2
sS'regulars'
p7157
I1
sS'participants'
p7158
I1
sS'opportunities'
p7159
I1
sS'Christians'
p7160
I2
sS'woman'
p7161
I18
sS'worse'
p7162
I31
sS'song'
p7163
I6
sS'far'
p7164
I23
sS'fat'
p7165
I6
sS'Ang'
p7166
I3
sS'fan'
p7167
I15
sS'awful'
p7168
I51
sS'ticket'
p7169
I2
sS'fad'
p7170
I1
sS'treating'
p7171
I1
sS'sentimental'
p7172
I3
sS'crossovers'
p7173
I1
sS'list'
p7174
I9
sS'trench'
p7175
I1
sS'liars'
p7176
I1
sS'Psycho'
p7177
I2
sS'conflicted'
p7178
I1
sS'flick'
p7179
I25
sS'ten'
p7180
I9
sS'rate'
p7181
I10
sS'bopper'
p7182
I2
sS'East'
p7183
I2
sS'what'
p7184
I118
sS'hesitation'
p7185
I1
sS'sub'
p7186
I1
sS'deeply'
p7187
I2
sS'sum'
p7188
I2
sS'ticks'
p7189
I1
sS'brief'
p7190
I1
sS'guna'
p7191
I1
sS'version'
p7192
I19
sS'entwine'
p7193
I1
sS'racing'
p7194
I3
sS'guns'
p7195
I1
sS'christian'
p7196
I1
sS'hungover'
p7197
I1
sS'supposedly'
p7198
I2
sS'behaviour'
p7199
I1
sS'shouldn'
p7200
I6
sS'directions'
p7201
I1
sS'DESTROY'
p7202
I1
sS'epitome'
p7203
I1
sS'tragedy'
p7204
I1
sS'high-school'
p7205
I2
sS'Absolutely'
p7206
I2
sS'verry'
p7207
I4
sS'REALLLY'
p7208
I1
sS'Forrest'
p7209
I1
sS'camcorder'
p7210
I2
sS'sticking'
p7211
I1
sS'Toy'
p7212
I2
sS'thankfully'
p7213
I1
sS'suddenly'
p7214
I3
sS'Things'
p7215
I1
sS'Top'
p7216
I3
sS'screens'
p7217
I2
sS'Too'
p7218
I10
sS'Tom'
p7219
I13
sS'1900'
p7220
I1
sS'jurors'
p7221
I1
sS'Liasons'
p7222
I2
sS'Overall'
p7223
I2
sS'pervaded'
p7224
I1
sS'minor'
p7225
I1
sS'horses'
p7226
I1
sS'flat'
p7227
I9
sS'wretched'
p7228
I3
sS'knows'
p7229
I5
sS'grabbing'
p7230
I1
sS'flag'
p7231
I2
sS'NONhonor'
p7232
I1
sS'basically'
p7233
I5
sS'known'
p7234
I2
sS'glad'
p7235
I8
sS'self-sacrifice'
p7236
I1
sS'FISHING'
p7237
I1
sS'caveat'
p7238
I1
sS'Ed'
p7239
I1
sS'Phantom'
p7240
I5
sS'atrocious'
p7241
I2
sS'Hummers'
p7242
I1
sS'Coleman'
p7243
I1
sS'premiscious'
p7244
I1
sS'rather'
p7245
I22
sS'Cannon'
p7246
I1
sS'breaking'
p7247
I1
sS'extinguished'
p7248
I1
sS'explains'
p7249
I1
sS'shouldnt'
p7250
I1
sS'okay'
p7251
I5
sS'Epps'
p7252
I1
sS'lighting'
p7253
I1
sS'adventure'
p7254
I1
sS'numb'
p7255
I1
sS'FAKE'
p7256
I1
sS'short'
p7257
I7
sS'prefers'
p7258
I1
sS'strutting'
p7259
I1
sS'Sean'
p7260
I6
sS'teenage-wannabe'
p7261
I1
sS'FRIENDS'
p7262
I2
sS'Hopeless'
p7263
I1
sS'tanks'
p7264
I1
sS'essence'
p7265
I1
sS'major'
p7266
I11
sS'Same'
p7267
I3
sS'disabled'
p7268
I1
sS'isnt'
p7269
I1
sS'scientist'
p7270
I1
sS'trouble'
p7271
I3
sS'style'
p7272
I3
sS'March'
p7273
I1
sS'pray'
p7274
I2
sS'dross'
p7275
I1
sS'strange'
p7276
I8
sS'goofiest'
p7277
I1
sS'bout'
p7278
I1
sS'might'
p7279
I19
sS'writters'
p7280
I1
sS'wouldn'
p7281
I15
sS'somebody'
p7282
I5
sS'sucking'
p7283
I1
sS'protaganist'
p7284
I1
sS'L'
p7285
I2
sS'inauthentic'
p7286
I1
sS'hunted'
p7287
I1
sS'bollywood'
p7288
I1
sS'bigger'
p7289
I1
sS'unintersting'
p7290
I1
sS'overused'
p7291
I2
sS'mastered'
p7292
I1
sS'Ready'
p7293
I1
sS'inherent'
p7294
I1
sS'Sucked'
p7295
I4
sS's-good'
p7296
I1
sS'PLANNER'
p7297
I1
sS'envolved'
p7298
I1
sS'weight'
p7299
I2
sS'Attila'
p7300
I1
sS'generation'
p7301
I3
sS'Antartica'
p7302
I1
sS'Joseph'
p7303
I2
sS'Pile'
p7304
I1
sS'expect'
p7305
I5
sS'inflated'
p7306
I1
sS'seditious'
p7307
I1
sS'More'
p7308
I6
sS'wondered'
p7309
I2
sS'Tigers'
p7310
I1
sS'Samuel'
p7311
I1
sS'Manipulative'
p7312
I1
sS'hill'
p7313
I1
sS'induced'
p7314
I1
sS'MTV'
p7315
I3
sS'friday'
p7316
I6
sS'forgive'
p7317
I5
sS'GORE'
p7318
I1
sS'prison-guard-with-a-heart'
p7319
I1
sS'teach'
p7320
I1
sS'thrown'
p7321
I3
sS'People'
p7322
I10
sS'Sync'
p7323
I1
sS'threat'
p7324
I1
sS'fallen'
p7325
I1
sS'feel'
p7326
I34
sS'radical'
p7327
I1
sS'churning'
p7328
I2
sS'linking'
p7329
I1
sS'feet'
p7330
I1
sS'sympathy'
p7331
I4
sS'Indian'
p7332
I1
sS'bland'
p7333
I5
sS'totalitarianism'
p7334
I1
sS'harbours'
p7335
I1
sS'passes'
p7336
I1
sS'story'
p7337
I90
sS'"'
p7338
I4
sS'script'
p7339
I27
sS'edginess'
p7340
I1
sS'hangs'
p7341
I1
sS'Making'
p7342
I1
sS'storm'
p7343
I2
sS'syrup'
p7344
I1
sS'growned'
p7345
I1
sS'store'
p7346
I6
sS'headache'
p7347
I8
sS'pump'
p7348
I1
sS'smile-worthy'
p7349
I1
sS'Dangerous'
p7350
I2
sS'brawls'
p7351
I1
sS'filmic'
p7352
I1
sS'luckily'
p7353
I1
sS'kind'
p7354
I19
sS'simplist'
p7355
I1
sS'5-star'
p7356
I1
sS'double'
p7357
I1
sS'outrageous'
p7358
I1
sS'architect'
p7359
I1
sS'stale'
p7360
I1
sS'unrelenting'
p7361
I1
sS'Oliver'
p7362
I2
sS'outstanding'
p7363
I1
sS'Creativity'
p7364
I1
sS'shrewd'
p7365
I1
sS'alike'
p7366
I2
sS'far-fetched'
p7367
I1
sS'nebulous'
p7368
I1
sS'Sly'
p7369
I2
sS'nights'
p7370
I1
sS'Germany'
p7371
I1
sS'sandwiches'
p7372
I1
sS'buff'
p7373
I2
sS'unremarkable'
p7374
I1
sS'clothespin'
p7375
I1
sS'"Scream"'
p7376
I1
sS'ponderarse'
p7377
I1
sS'reach'
p7378
I2
sS'Unnecessary'
p7379
I1
sS'75'
p7380
I2
sS'70'
p7381
I2
sS'nothing'
p7382
I56
sS'defensible'
p7383
I1
sS'measured'
p7384
I1
sS'unremarkably'
p7385
I1
sS'achievement'
p7386
I2
sS'dealers'
p7387
I1
sS'windows'
p7388
I1
sS'Bruce'
p7389
I1
sS'scantily'
p7390
I1
sS'acclaims'
p7391
I1
sS'Reynolds'
p7392
I1
sS'Juliet'
p7393
I2
sS'stones'
p7394
I1
sS'vaunted'
p7395
I1
sS'Pharisees'
p7396
I1
sS'Ebert'
p7397
I2
sS'Forward'
p7398
I1
sS'cameo'
p7399
I2
sS'Ford'
p7400
I3
sS'stairs'
p7401
I1
sS'grotesque'
p7402
I1
sS'Jr'
p7403
I1
sS'hip'
p7404
I2
sS'charcters'
p7405
I1
sS'his'
p7406
I82
sS'hit'
p7407
I6
sS'invoke'
p7408
I2
sS'goody-goody'
p7409
I1
sS'Purposeless'
p7410
I1
sS'b'
p7411
I2
sS'longest'
p7412
I1
sS'Both'
p7413
I5
sS'him'
p7414
I44
sS'noises'
p7415
I1
sS'THIS'
p7416
I15
sS'moviegoers'
p7417
I1
sS'Doesn'
p7418
I1
sS'foulist'
p7419
I1
sS'cartoons'
p7420
I1
sS'activity'
p7421
I1
sS'relentless'
p7422
I1
sS'wrote'
p7423
I7
sS'consciously'
p7424
I1
sS'art'
p7425
I4
sS'supporting'
p7426
I3
sS'intelligence'
p7427
I7
sS'advertised'
p7428
I1
sS'Duel'
p7429
I1
sS'choreographed'
p7430
I1
sS'dumb'
p7431
I23
sS'are'
p7432
I180
sS'barf'
p7433
I1
sS'cleverly'
p7434
I1
sS'langauge'
p7435
I1
sS'youth'
p7436
I2
sS'nailed'
p7437
I3
sS'slapped'
p7438
I1
sS'degrading'
p7439
I1
sS'various'
p7440
I3
sS'consecutive'
p7441
I1
sS'numerous'
p7442
I2
sS'corruption'
p7443
I1
sS'recently'
p7444
I1
sS'creating'
p7445
I2
sS'Streisand'
p7446
I2
sS'Could'
p7447
I2
sS'attention'
p7448
I3
sS'outfit'
p7449
I1
sS'succeed'
p7450
I1
sS'competent'
p7451
I3
sS'Friends'
p7452
I1
sS'prelude'
p7453
I1
sS'AND'
p7454
I7
sS'c'
p7455
I3
sS'Helsing'
p7456
I5
sS'bludgeoned'
p7457
I1
sS'riddled'
p7458
I1
sS'became'
p7459
I5
sS'finds'
p7460
I3
sS'Superman'
p7461
I2
sS'flies'
p7462
I1
sS'Re-enactors'
p7463
I1
sS'distress'
p7464
I1
sS'Snoop'
p7465
I5
sS'reasons'
p7466
I2
sS'sweet'
p7467
I4
sS'Willis'
p7468
I1
sS'dudes'
p7469
I2
sS'storybook'
p7470
I1
sS'village'
p7471
I1
sS'outta'
p7472
I2
sS'Pa-thet-ic'
p7473
I1
sS'goats'
p7474
I1
sS'duh'
p7475
I2
sS'Play'
p7476
I2
sS'dum'
p7477
I1
sS'political'
p7478
I6
sS'due'
p7479
I3
sS'whom'
p7480
I1
sS'Rogue'
p7481
I1
sS'whoa'
p7482
I1
sS'tangents'
p7483
I1
sS'1950s'
p7484
I1
sS'sending'
p7485
I1
sS'vaguely'
p7486
I1
sS'1864'
p7487
I1
sS'demand'
p7488
I2
sS'overrunning'
p7489
I1
sS'DeNiro'
p7490
I1
sS'Wolves'
p7491
I1
sS'MISTAKE'
p7492
I1
sS'frozen'
p7493
I1
sS'Bloody'
p7494
I2
sS'Salem'
p7495
I1
sS'behavior'
p7496
I3
sS'SAVED'
p7497
I1
sS'theres'
p7498
I2
sS'miles'
p7499
I1
sS'Dreadful'
p7500
I1
sS'credence'
p7501
I1
sS'trumped-up'
p7502
I1
sS'demon'
p7503
I2
sS'rip'
p7504
I9
sS'disappointing'
p7505
I12
sS'ecstasy'
p7506
I1
sS'rid'
p7507
I1
sS'anguish'
p7508
I1
sS'apopear'
p7509
I1
sS'shirt'
p7510
I1
sS'Nation'
p7511
I1
sS'wierd'
p7512
I3
sS'peoples'
p7513
I1
sS'9'
p7514
I4
sS'advise'
p7515
I1
sS'daughters'
p7516
I2
sS'higher'
p7517
I3
sS'Insert'
p7518
I1
sS'About'
p7519
I5
sS'literature'
p7520
I1
sS'moving'
p7521
I4
sS'YOU'
p7522
I8
sS'lower'
p7523
I4
sS'lessions'
p7524
I1
sS'Ricahard'
p7525
I1
sS'Nascar'
p7526
I3
sS'Oscars'
p7527
I4
sS'cheer'
p7528
I2
sS'edge'
p7529
I2
sS'Examples'
p7530
I1
sS'inspirational'
p7531
I1
sS'know'
p7532
I57
sS'abilities'
p7533
I1
sS'Takes'
p7534
I1
sS'DARK'
p7535
I1
sS'reincarnated'
p7536
I2
sS'Said'
p7537
I1
sS'questions'
p7538
I5
sS'retired'
p7539
I1
sS'Nope'
p7540
I2
sS'ORDER'
p7541
I1
sS'Files'
p7542
I1
sS'Ironically'
p7543
I1
sS'chutzpah'
p7544
I1
sS'humour'
p7545
I1
sS'treacle'
p7546
I1
sS'likeable'
p7547
I2
sS'exclusively'
p7548
I2
sS'inducing'
p7549
I2
sS'Proof'
p7550
I1
sS'lending'
p7551
I1
sS'Last'
p7552
I3
sS'complains'
p7553
I1
sS'joyless'
p7554
I1
sS'seanbryson'
p7555
I1
sS'lovin'
p7556
I1
sS'Definitely'
p7557
I2
sS'fare'
p7558
I3
sS'insert'
p7559
I1
sS'Again'
p7560
I2
sS'verion'
p7561
I1
sS'Yemen'
p7562
I1
sS'admittedly'
p7563
I1
sS'hahahahahaahahaahah'
p7564
I1
sS'ignore'
p7565
I1
sS'DOES'
p7566
I1
sS'unstable'
p7567
I1
sS'essential'
p7568
I1
sS'Scissorhands'
p7569
I1
sS'porrly'
p7570
I1
sS'traits'
p7571
I1
sS'clown'
p7572
I3
sS'EMPTY'
p7573
I1
sS'2102723'
p7574
I1
sS'nauseating'
p7575
I1
sS'tends'
p7576
I2
sS'apathetic'
p7577
I1
sS'jumpy'
p7578
I1
sS'Sanders'
p7579
I1
sS'jumps'
p7580
I1
sS'Anybody'
p7581
I3
sS'zombie'
p7582
I5
sS'intense'
p7583
I1
sS'CHRIST'
p7584
I1
sS'hogwash'
p7585
I1
sS'Square'
p7586
I1
sS'Ron'
p7587
I1
sS'Rob'
p7588
I3
sS'lifeless'
p7589
I1
sS'dialog'
p7590
I5
sS'hatred'
p7591
I2
sS'complimentary'
p7592
I1
sS'wanna'
p7593
I4
sS'credible'
p7594
I1
sS'hollywood-ised'
p7595
I1
sS'shed'
p7596
I1
sS'NO'
p7597
I6
sS'drifted'
p7598
I1
sS'stench'
p7599
I1
sS'Tiger'
p7600
I1
sS'Caddyshack'
p7601
I2
sS'question'
p7602
I4
sS'long'
p7603
I52
sS'Every'
p7604
I6
sS'Nolte'
p7605
I1
sS'zepplin'
p7606
I1
sS'UNintentionally'
p7607
I1
sS'files'
p7608
I1
sS'mundane'
p7609
I1
sS'Coltraine'
p7610
I1
sS'embarasses'
p7611
I1
sS'Mason'
p7612
I1
sS'junior'
p7613
I2
sS'characteristic'
p7614
I1
sS'Cruise'
p7615
I10
sS'highlight'
p7616
I1
sS'called'
p7617
I11
sS'Belt'
p7618
I1
sS'bell'
p7619
I1
sS'associated'
p7620
I4
sS'worthwhile'
p7621
I1
sS'Binoche'
p7622
I1
sS'Nazis'
p7623
I1
sS'Hewitt'
p7624
I2
sS'disappoints'
p7625
I1
sS'riiiight'
p7626
I1
sS'peace'
p7627
I3
sS'These'
p7628
I5
sS'Personally'
p7629
I2
sS'contoversy'
p7630
I1
sS'letgodbetrue'
p7631
I1
sS'nice'
p7632
I8
sS'develope'
p7633
I1
sS'understatement'
p7634
I1
sS'problems'
p7635
I3
sS'breasts'
p7636
I2
sS'ather'
p7637
I1
sS'meaning'
p7638
I7
sS'peepers'
p7639
I1
sS'Skunk'
p7640
I1
sS'happier'
p7641
I1
sS'lead'
p7642
I8
sS'vice'
p7643
I2
sS'Espa'
p7644
I1
sS'Dragonball'
p7645
I1
sS'narrative'
p7646
I1
sS'Turner'
p7647
I3
sS'buffalo'
p7648
I1
sS'once'
p7649
I25
sS'pervert'
p7650
I1
sS'Based'
p7651
I2
sS'alien'
p7652
I9
sS'gang'
p7653
I1
sS'winds'
p7654
I1
sS'issues'
p7655
I1
sS'Grier'
p7656
I2
sS'disposal'
p7657
I1
sS'WAS'
p7658
I4
sS'include'
p7659
I2
sS'dramatically'
p7660
I1
sS'confirmation'
p7661
I1
sS'wished'
p7662
I2
sS'un-scary'
p7663
I1
sS'allegory'
p7664
I1
sS'OUCH'
p7665
I1
sS'P'
p7666
I4
sS'spook'
p7667
I1
sS'Branagh'
p7668
I1
sS'incoherent'
p7669
I1
sS'deals'
p7670
I1
sS'co-stars'
p7671
I1
sS'dealt'
p7672
I1
sS'alltime'
p7673
I1
sS'concluded'
p7674
I1
sS'cap'
p7675
I1
sS'Skywalker'
p7676
I1
sS'ripped'
p7677
I2
sS'State'
p7678
I1
sS'reunion'
p7679
I1
sS'manipulating'
p7680
I1
sS'Spealberg'
p7681
I1
sS'acid'
p7682
I2
sS'acing'
p7683
I1
sS'inaccurate'
p7684
I3
sS'showcase'
p7685
I1
sS'pasturized'
p7686
I1
sS'Tucker'
p7687
I1
sS'waiting'
p7688
I11
sS'chose'
p7689
I3
sS'degree'
p7690
I1
sS'pushing'
p7691
I3
sS'DUDE'
p7692
I1
sS'Obviously'
p7693
I2
sS'desired'
p7694
I1
sS'sexy'
p7695
I1
sS'larger'
p7696
I1
sS'leaving'
p7697
I3
sS'Palm'
p7698
I1
sS'Robert'
p7699
I6
sS'shoved'
p7700
I1
sS'improbable'
p7701
I1
sS'apply'
p7702
I1
sS'Wiseman'
p7703
I1
sS'droopy'
p7704
I1
sS'use'
p7705
I16
sS'from'
p7706
I154
sS'&'
p7707
I14
sS'Hun'
p7708
I1
sS'Huh'
p7709
I2
sS'frog'
p7710
I2
sS'bluriness'
p7711
I1
sS'few'
p7712
I22
sS'depicted'
p7713
I2
sS'SEQUELS'
p7714
I1
sS'scariest'
p7715
I2
sS'convoluted'
p7716
I1
sS'sort'
p7717
I7
sS'clever'
p7718
I2
sS'whant'
p7719
I1
sS'factor'
p7720
I8
sS'Gus'
p7721
I1
sS'sore'
p7722
I1
sS'women'
p7723
I10
sS'ALL'
p7724
I3
sS'stroke'
p7725
I1
sS'anywhere'
p7726
I3
sS'aweful'
p7727
I1
sS'proof'
p7728
I3
sS'tap'
p7729
I1
sS'thirsty'
p7730
I1
sS'Kathleen'
p7731
I1
sS'matinee'
p7732
I2
sS'tax'
p7733
I1
sS'tad'
p7734
I1
sS'villain'
p7735
I2
sS'something'
p7736
I56
sS'Grease'
p7737
I4
sS'dummer'
p7738
I1
sS'rape'
p7739
I1
sS'HUGE'
p7740
I2
sS'syndrome'
p7741
I1
sS'sit'
p7742
I16
sS'cliches'
p7743
I3
sS'justifiable'
p7744
I1
sS'struggles'
p7745
I1
sS'instead'
p7746
I17
sS'cliched'
p7747
I2
sS'tension'
p7748
I2
sS'puppets'
p7749
I1
sS'Irishgit'
p7750
I1
sS'masks'
p7751
I1
sS'baaaaaaaaad'
p7752
I1
sS'abuse'
p7753
I1
sS'wrist'
p7754
I1
sS'Hence'
p7755
I1
sS'sillies'
p7756
I1
sS'light'
p7757
I4
sS'honestly'
p7758
I9
sS'improvised'
p7759
I1
sS'crawling'
p7760
I1
sS'Hammer'
p7761
I1
sS'preparing'
p7762
I1
sS'artsy-fartsy'
p7763
I1
sS'farming'
p7764
I1
sS'damsel'
p7765
I1
sS'reptile'
p7766
I1
sS'interpreted'
p7767
I1
sS'looks'
p7768
I18
sS'Fairly'
p7769
I1
sS'ships'
p7770
I1
sS'nostalgia'
p7771
I1
sS'movieHalloween'
p7772
I1
sS'contemplative'
p7773
I1
sS'orange'
p7774
I1
sS'crowds'
p7775
I1
sS'pending'
p7776
I1
sS'Ashley'
p7777
I1
sS'profanity-laced'
p7778
I2
sS'material'
p7779
I4
sS'Adam'
p7780
I1
sS'impaired'
p7781
I1
sS'Pro-Castro'
p7782
I1
sS'crass'
p7783
I1
sS'articles'
p7784
I1
sS'profound'
p7785
I3
sS'Lambs'
p7786
I1
sS'deteriorate'
p7787
I1
sS'brush'
p7788
I1
sS'whis'
p7789
I1
sS'cry'
p7790
I6
sS'tepid'
p7791
I1
sS'related'
p7792
I1
sS'Next'
p7793
I4
sS'Chaucer'
p7794
I1
sS'Which'
p7795
I2
sS'our'
p7796
I25
sS'80'
p7797
I6
sS'HATE'
p7798
I1
sS'out'
p7799
I194
sS'category'
p7800
I2
sS'Turds'
p7801
I1
sS'schmucks'
p7802
I1
sS'Considering'
p7803
I1
sS'Cartoon'
p7804
I1
sS'This'
p7805
I295
sS'WOW'
p7806
I2
sS'Stupid'
p7807
I12
sS'pessimsitic'
p7808
I2
sS'Gone'
p7809
I2
sS'river'
p7810
I1
sS'Lawrence'
p7811
I1
sS'Hyde'
p7812
I1
sS'corrector'
p7813
I1
sS'californian'
p7814
I1
sS'insane'
p7815
I3
sS'obscurity'
p7816
I1
sS'simultanious'
p7817
I1
sS'gratuitously'
p7818
I1
sS'North'
p7819
I1
sS'unknown'
p7820
I1
sS'Ryder'
p7821
I2
sS'accent'
p7822
I4
sS'Rankin'
p7823
I1
sS'their'
p7824
I62
sS'Hawk'
p7825
I1
sS'misunderstood'
p7826
I1
sS'shell'
p7827
I2
sS'academy'
p7828
I4
sS'doomed'
p7829
I2
sS'shallow'
p7830
I9
sS'OSCARS'
p7831
I1
sS'branches'
p7832
I1
sS'institution'
p7833
I1
sS'Obi-Wan'
p7834
I1
sS'noses'
p7835
I1
sS'KC'
p7836
I1
sS'objectionable'
p7837
I3
sS'boring'
p7838
I112
sS'KO'
p7839
I1
sS'richer'
p7840
I1
sS'tommy'
p7841
I1
sS'Italians'
p7842
I1
sS'Peter'
p7843
I5
sS'clevage'
p7844
I1
sS'violets'
p7845
I1
sS'teenagers'
p7846
I11
sS'sincerity'
p7847
I2
sS'movie-with'
p7848
I1
sS'unbearable'
p7849
I1
sS'afraid'
p7850
I1
sS'angle'
p7851
I4
sS'agency'
p7852
I1
sS'which'
p7853
I57
sS'Science'
p7854
I2
sS'='
p7855
I2
sS'TOLD'
p7856
I1
sS'lugar'
p7857
I1
sS'unbore'
p7858
I1
sS'combat'
p7859
I1
sS'who'
p7860
I146
sS'Titanic'
p7861
I4
sS'Games'
p7862
I1
sS'delve'
p7863
I1
sS'why'
p7864
I57
sS'lamer'
p7865
I1
sS'thespians'
p7866
I1
sS'saddest'
p7867
I1
sS'Requiem'
p7868
I1
sS'Pop'
p7869
I1
sS'High'
p7870
I3
sS'whooptie'
p7871
I1
sS'contradictory'
p7872
I1
sS'inane'
p7873
I1
sS'Everybody'
p7874
I2
sS'Suspence'
p7875
I1
sS'Buddy'
p7876
I1
sS'chances'
p7877
I1
sS'agreed'
p7878
I1
sS'artfully'
p7879
I1
sS'repetative'
p7880
I1
sS'utter'
p7881
I3
sS'fear'
p7882
I4
sS'pleased'
p7883
I1
sS'Shut'
p7884
I3
sS'PUH-LEASE'
p7885
I1
sS'naturalistic'
p7886
I1
sS'USA'
p7887
I1
sS'f---'
p7888
I1
sS'piano'
p7889
I1
sS'thousands'
p7890
I2
sS'Legend'
p7891
I2
sS'spun'
p7892
I1
sS'sued'
p7893
I1
sS'watching'
p7894
I48
sS'goosebumps'
p7895
I1
sS'massacre'
p7896
I2
sS'regretfulness'
p7897
I1
sS'Clones'
p7898
I1
sS'non-Jewish'
p7899
I1
sS'ones'
p7900
I4
sS'words'
p7901
I7
sS'THE'
p7902
I16
sS'binds'
p7903
I1
sS'ended'
p7904
I6
sS'married'
p7905
I2
sS'Seinfeld'
p7906
I3
sS'leviathan'
p7907
I1
sS'juror'
p7908
I1
sS'cleavage'
p7909
I1
sS'THe'
p7910
I1
sS'futuristic'
p7911
I3
sS'view'
p7912
I8
sS'available'
p7913
I1
sS'requirement'
p7914
I2
sS'acquired'
p7915
I1
sS'fantastically'
p7916
I1
sS'artsy'
p7917
I4
sS'Hirsch'
p7918
I1
sS'closer'
p7919
I1
sS'Hitcher'
p7920
I1
sS'Godzilla'
p7921
I2
sS'Higly'
p7922
I1
sS'Crappy'
p7923
I1
sS'favor'
p7924
I5
sS'Shamalyan'
p7925
I1
sS'crude'
p7926
I1
sS'frustrated'
p7927
I1
sS'bought'
p7928
I2
sS'masochistic'
p7929
I1
sS'ability'
p7930
I5
sS'opening'
p7931
I8
sS'joy'
p7932
I1
sS'Minnie'
p7933
I1
sS'embarrassment'
p7934
I1
sS'job'
p7935
I18
sS'sonorous'
p7936
I1
sS'Gospels'
p7937
I1
sS'profanity'
p7938
I5
sS'waisted'
p7939
I3
sS'twitching'
p7940
I1
sS'Rate-Its'
p7941
I1
sS'atleast'
p7942
I2
sS'unconvincing'
p7943
I1
sS'THEN'
p7944
I2
sS'THEM'
p7945
I1
sS'unclear'
p7946
I2
sS'wall'
p7947
I2
sS'DVD'
p7948
I5
sS'Lili'
p7949
I1
sS'hundered'
p7950
I1
sS'ploys'
p7951
I1
sS'walk'
p7952
I3
sS'Finally'
p7953
I4
sS'THEY'
p7954
I3
sS'sequences'
p7955
I1
sS'table'
p7956
I2
sS'inflicted'
p7957
I1
sS'Mekhi'
p7958
I1
sS'occured'
p7959
I1
sS'Mendes'
p7960
I1
sS'8-year'
p7961
I1
sS'decent'
p7962
I4
sS'potheads'
p7963
I1
sS'literal'
p7964
I1
sS'painted'
p7965
I1
sS'crappy'
p7966
I12
sS'hmm'
p7967
I1
sS'saner'
p7968
I1
sS'Jason'
p7969
I21
sS'present'
p7970
I3
sS'Force'
p7971
I1
sS'abandoned'
p7972
I1
sS'unlike'
p7973
I2
sS'Halloween'
p7974
I9
sS'choices'
p7975
I1
sS'will'
p7976
I67
sS'stunning'
p7977
I2
sS'Jaws'
p7978
I1
sS'wild'
p7979
I1
sS'wile'
p7980
I1
sS're-aired'
p7981
I1
sS'MORE'
p7982
I1
sS'layer'
p7983
I1
sS'apprehend'
p7984
I1
sS'thus'
p7985
I1
sS'audiences'
p7986
I4
sS'snuck'
p7987
I2
sS'Intelligent'
p7988
I1
sS'Hope'
p7989
I3
sS'Loving'
p7990
I1
sS'perhaps'
p7991
I5
sS'cross'
p7992
I3
sS'member'
p7993
I4
sS'gets'
p7994
I22
sS'difficult'
p7995
I6
sS'slave'
p7996
I4
sS'definately'
p7997
I2
sS'disagree'
p7998
I1
sS'Wal-Mart'
p7999
I1
sS'student'
p8000
I5
sS'whale'
p8001
I1
sS'warming'
p8002
I2
sS'Houston'
p8003
I1
sS'gutter'
p8004
I1
sS'masochist'
p8005
I1
sS'ingredients'
p8006
I1
sS'fighting'
p8007
I4
sS'YEARS'
p8008
I1
sS'States'
p8009
I1
sS'ARE'
p8010
I2
sS'firstly'
p8011
I1
sS'excessive'
p8012
I2
sS'cried'
p8013
I3
sS'heavily'
p8014
I2
sS'cries'
p8015
I1
sS'batteries'
p8016
I1
sS'fishing'
p8017
I2
sS'Argentina'
p8018
I1
sS'Nicholas'
p8019
I1
sS'happiness'
p8020
I1
sS'toilets'
p8021
I1
sS'guts'
p8022
I2
sS'smith'
p8023
I2
sS'other'
p8024
I46
sS'Fan'
p8025
I1
sS'attractive'
p8026
I1
sS'oscar-worthy'
p8027
I1
sS'acted'
p8028
I7
sS'identical'
p8029
I1
sS'gentler-kinder'
p8030
I1
sS'angst-ridden'
p8031
I4
sS'meteor'
p8032
I1
sS'term'
p8033
I1
sS'Drug'
p8034
I2
sS'T'
p8035
I11
sS'facial'
p8036
I1
sS'hollow'
p8037
I1
sS'Unimaginative'
p8038
I1
sS'comercials'
p8039
I1
sS'glipst'
p8040
I1
sS'Burkettsville'
p8041
I2
sS'helpful'
p8042
I2
sS'DOUBLE'
p8043
I1
sS'loser'
p8044
I2
sS'loses'
p8045
I2
sS'starred'
p8046
I3
sS'because'
p8047
I101
sS'shabby'
p8048
I1
sS'sequence'
p8049
I1
sS'scared'
p8050
I22
sS'searching'
p8051
I1
sS'characterwho'
p8052
I1
sS'empire'
p8053
I1
sS'scares'
p8054
I1
sS'focused'
p8055
I1
sS'Biblical'
p8056
I1
sS'blubbering'
p8057
I1
sS'cannibalistic'
p8058
I1
sS'expensive'
p8059
I2
sS'leader'
p8060
I1
sS'rip-off'
p8061
I6
sS'pasty'
p8062
I1
sS'poets'
p8063
I1
sS'murderer'
p8064
I2
sS'handedly'
p8065
I1
sS'slut'
p8066
I1
sS'murdered'
p8067
I1
sS'conveyed'
p8068
I1
sS'asinine'
p8069
I1
sS'stay'
p8070
I11
sS'Maul'
p8071
I2
sS'Willem'
p8072
I1
sS'rare'
p8073
I1
sS'carried'
p8074
I1
sS'extension'
p8075
I1
sS'getting'
p8076
I16
sS'foil'
p8077
I1
sS'injusto'
p8078
I2
sS'Zero'
p8079
I1
sS'swear'
p8080
I4
sS'Americans'
p8081
I5
sS'urges'
p8082
I1
sS'Really'
p8083
I11
sS'warranty'
p8084
I1
sS'own'
p8085
I15
sS'Suffice'
p8086
I1
sS'MODERN'
p8087
I1
sS'Stockard'
p8088
I1
sS'sucicides'
p8089
I1
sS'electrocutions'
p8090
I1
sS'brilliantly'
p8091
I1
sS'Mcdormand'
p8092
I1
sS'wasen'
p8093
I1
sS'Dusk'
p8094
I2
sS'Bale'
p8095
I2
sS'*'
p8096
I61
sS'kidding'
p8097
I9
sS'posters'
p8098
I1
sS'powdered'
p8099
I1
sS'vas'
p8100
I1
sS'Charmed'
p8101
I1
sS'DiCapprio'
p8102
I1
sS'Dude'
p8103
I1
sS'bitches'
p8104
I1
sS'Pseudo'
p8105
I1
sS'volume'
p8106
I1
sS'Micheal'
p8107
I1
sS'temt'
p8108
I1
sS'made'
p8109
I127
sS'tactics'
p8110
I1
sS'Jenny'
p8111
I1
sS'whether'
p8112
I2
sS'Ted'
p8113
I2
sS'nightgown'
p8114
I1
sS'record'
p8115
I5
sS'below'
p8116
I4
sS'pleassurefull'
p8117
I1
sS'cmon'
p8118
I1
sS'horrific'
p8119
I1
sS'betrayed'
p8120
I1
sS'meaningless'
p8121
I3
sS'---'
p8122
I1
sS'ground--'
p8123
I1
sS'goodness'
p8124
I1
sS'CUNNINGHAM'
p8125
I1
sS'boot'
p8126
I2
sS'Mario'
p8127
I3
sS'book'
p8128
I39
sS'boom'
p8129
I1
sS'sick'
p8130
I17
sS'incredibly'
p8131
I10
sS'Banner'
p8132
I2
sS'conclusion'
p8133
I4
sS'junk'
p8134
I16
sS'SPACE'
p8135
I1
sS'cruelty'
p8136
I1
sS'Future'
p8137
I1
sS'PLAN'
p8138
I1
sS'kinda'
p8139
I6
sS'Sith'
p8140
I1
sS'Garbage'
p8141
I1
sS'ranks'
p8142
I1
sS'untalented'
p8143
I1
s.